TN:
SF:/home/carlos/CLionProjects/PruebaTest/src/NumberTheoryCalculatorWithContracts.cpp
FN:13,_ZN35NumberTheoryCalculatorWithContracts5signoEi
FN:20,_ZN35NumberTheoryCalculatorWithContracts3divEii
FN:23,_ZZN35NumberTheoryCalculatorWithContracts3divEiiENKUlvE_clEv
FN:38,_ZN35NumberTheoryCalculatorWithContracts3modEii
FN:43,_ZN35NumberTheoryCalculatorWithContracts9divisibleEii
FN:48,_ZN35NumberTheoryCalculatorWithContracts3mcdEii
FN:51,_ZZN35NumberTheoryCalculatorWithContracts3mcdEiiENKUlvE_clEv
FN:64,_ZN35NumberTheoryCalculatorWithContracts3mcmEii
FN:69,_Z41__static_initialization_and_destruction_0ii
FN:69,_GLOBAL__sub_I__ZN35NumberTheoryCalculatorWithContractsC2Ev
FNDA:94,_ZN35NumberTheoryCalculatorWithContracts5signoEi
FNDA:92,_ZN35NumberTheoryCalculatorWithContracts3divEii
FNDA:92,_ZZN35NumberTheoryCalculatorWithContracts3divEiiENKUlvE_clEv
FNDA:85,_ZN35NumberTheoryCalculatorWithContracts3modEii
FNDA:36,_ZN35NumberTheoryCalculatorWithContracts9divisibleEii
FNDA:20,_ZN35NumberTheoryCalculatorWithContracts3mcdEii
FNDA:20,_ZZN35NumberTheoryCalculatorWithContracts3mcdEiiENKUlvE_clEv
FNDA:10,_ZN35NumberTheoryCalculatorWithContracts3mcmEii
FNDA:1,_GLOBAL__sub_I__ZN35NumberTheoryCalculatorWithContractsC2Ev
FNDA:1,_Z41__static_initialization_and_destruction_0ii
FNF:10
FNH:10
DA:13,94
DA:15,94
DA:16,14
DA:17,7
DA:20,92
DA:22,184
DA:23,276
DA:24,92
DA:25,274
DA:27,91
DA:28,91
DA:29,91
DA:30,2871
DA:32,1390
DA:33,1390
DA:35,182
DA:38,85
DA:40,85
DA:43,36
DA:45,36
DA:48,20
DA:50,40
DA:51,60
DA:52,20
DA:53,56
DA:55,104
DA:57,43
DA:58,43
DA:59,43
DA:61,36
DA:64,10
DA:66,10
DA:69,3
LF:33
LH:33
end_of_record
SF:/home/carlos/CLionProjects/PruebaTest/src/NumberTheoryCalculatorWithContracts.h
FN:11,_ZN35NumberTheoryCalculatorWithContractsD0Ev
FN:11,_ZN35NumberTheoryCalculatorWithContractsC2Ev
FN:11,_ZN35NumberTheoryCalculatorWithContractsD2Ev
FNDA:0,_ZN35NumberTheoryCalculatorWithContractsD0Ev
FNDA:30,_ZN35NumberTheoryCalculatorWithContractsD2Ev
FNDA:30,_ZN35NumberTheoryCalculatorWithContractsC2Ev
FNF:3
FNH:2
DA:11,60
LF:1
LH:1
end_of_record
SF:/usr/include/c++/7/atomic
FN:672,_ZNSt6atomicIiEC2Ei
FNDA:0,_ZNSt6atomicIiEC2Ei
FNF:1
FNH:0
DA:672,0
LF:1
LH:0
end_of_record
SF:/usr/include/c++/7/bits/alloc_traits.h
FN:435,_ZNSt16allocator_traitsISaISt13_Rb_tree_nodeISt4pairIKN5boost16exception_detail10type_info_ENS2_10shared_ptrINS3_15error_info_baseEEEEEEE8allocateERSB_m
FN:461,_ZNSt16allocator_traitsISaISt13_Rb_tree_nodeISt4pairIKN5boost16exception_detail10type_info_ENS2_10shared_ptrINS3_15error_info_baseEEEEEEE10deallocateERSB_PSA_m
FN:474,_ZNSt16allocator_traitsISaISt13_Rb_tree_nodeISt4pairIKN5boost16exception_detail10type_info_ENS2_10shared_ptrINS3_15error_info_baseEEEEEEE9constructIS9_JRKSt21piecewise_construct_tSt5tupleIJRS5_EESH_IJEEEEEvRSB_PT_DpOT0_
FN:474,_ZNSt16allocator_traitsISaISt13_Rb_tree_nodeISt4pairIKN5boost16exception_detail10type_info_ENS2_10shared_ptrINS3_15error_info_baseEEEEEEE9constructIS9_JS1_IS4_S8_EEEEvRSB_PT_DpOT0_
FN:486,_ZNSt16allocator_traitsISaISt13_Rb_tree_nodeISt4pairIKN5boost16exception_detail10type_info_ENS2_10shared_ptrINS3_15error_info_baseEEEEEEE7destroyIS9_EEvRSB_PT_
FNDA:0,_ZNSt16allocator_traitsISaISt13_Rb_tree_nodeISt4pairIKN5boost16exception_detail10type_info_ENS2_10shared_ptrINS3_15error_info_baseEEEEEEE8allocateERSB_m
FNDA:0,_ZNSt16allocator_traitsISaISt13_Rb_tree_nodeISt4pairIKN5boost16exception_detail10type_info_ENS2_10shared_ptrINS3_15error_info_baseEEEEEEE10deallocateERSB_PSA_m
FNDA:0,_ZNSt16allocator_traitsISaISt13_Rb_tree_nodeISt4pairIKN5boost16exception_detail10type_info_ENS2_10shared_ptrINS3_15error_info_baseEEEEEEE9constructIS9_JS1_IS4_S8_EEEEvRSB_PT_DpOT0_
FNDA:0,_ZNSt16allocator_traitsISaISt13_Rb_tree_nodeISt4pairIKN5boost16exception_detail10type_info_ENS2_10shared_ptrINS3_15error_info_baseEEEEEEE9constructIS9_JRKSt21piecewise_construct_tSt5tupleIJRS5_EESH_IJEEEEEvRSB_PT_DpOT0_
FNDA:0,_ZNSt16allocator_traitsISaISt13_Rb_tree_nodeISt4pairIKN5boost16exception_detail10type_info_ENS2_10shared_ptrINS3_15error_info_baseEEEEEEE7destroyIS9_EEvRSB_PT_
FNF:5
FNH:0
DA:435,0
DA:436,0
DA:461,0
DA:462,0
DA:474,0
DA:475,0
DA:486,0
DA:487,0
LF:8
LH:0
end_of_record
SF:/usr/include/c++/7/bits/allocator.h
FN:131,_ZNSaISt13_Rb_tree_nodeISt4pairIKN5boost16exception_detail10type_info_ENS1_10shared_ptrINS2_15error_info_baseEEEEEEC2Ev
FN:139,_ZNSaISt13_Rb_tree_nodeISt4pairIKN5boost16exception_detail10type_info_ENS1_10shared_ptrINS2_15error_info_baseEEEEEED2Ev
FNDA:0,_ZNSaISt13_Rb_tree_nodeISt4pairIKN5boost16exception_detail10type_info_ENS1_10shared_ptrINS2_15error_info_baseEEEEEEC2Ev
FNDA:0,_ZNSaISt13_Rb_tree_nodeISt4pairIKN5boost16exception_detail10type_info_ENS1_10shared_ptrINS2_15error_info_baseEEEEEED2Ev
FNF:2
FNH:0
DA:131,0
DA:139,0
LF:2
LH:0
end_of_record
SF:/usr/include/c++/7/bits/atomic_base.h
FN:256,_ZNSt13__atomic_baseIiEC2Ei
FNDA:0,_ZNSt13__atomic_baseIiEC2Ei
FNF:1
FNH:0
DA:256,0
DA:514,0
DA:524,0
LF:3
LH:0
end_of_record
SF:/usr/include/c++/7/bits/basic_string.h
FN:6034,_ZSteqIcSt11char_traitsIcESaIcEEbRKNSt7__cxx1112basic_stringIT_T0_T1_EEPKS5_
FN:6072,_ZStneIcSt11char_traitsIcESaIcEEbRKNSt7__cxx1112basic_stringIT_T0_T1_EEPKS5_
FNDA:6,_ZSteqIcSt11char_traitsIcESaIcEEbRKNSt7__cxx1112basic_stringIT_T0_T1_EEPKS5_
FNDA:6,_ZStneIcSt11char_traitsIcESaIcEEbRKNSt7__cxx1112basic_stringIT_T0_T1_EEPKS5_
FNF:2
FNH:2
DA:6034,6
DA:6036,6
DA:6072,6
DA:6074,6
LF:4
LH:4
end_of_record
SF:/usr/include/c++/7/bits/exception.h
FN:63,_ZNSt9exceptionC2Ev
FNDA:3,_ZNSt9exceptionC2Ev
FNF:1
FNH:1
DA:63,3
LF:1
LH:1
end_of_record
SF:/usr/include/c++/7/bits/move.h
FN:73,_ZSt7forwardIRKSt21piecewise_construct_tEOT_RNSt16remove_referenceIS3_E4typeE
FN:73,_ZSt7forwardIRN5boost10shared_ptrINS0_16exception_detail15error_info_baseEEEEOT_RNSt16remove_referenceIS6_E4typeE
FN:73,_ZSt7forwardISt4pairIN5boost16exception_detail10type_info_ENS1_10shared_ptrINS2_15error_info_baseEEEEEOT_RNSt16remove_referenceIS8_E4typeE
FN:73,_ZSt7forwardIN5boost10shared_ptrINS0_16exception_detail15error_info_baseEEEEOT_RNSt16remove_referenceIS5_E4typeE
FN:73,_ZSt7forwardIRPSt18_Rb_tree_node_baseEOT_RNSt16remove_referenceIS3_E4typeE
FN:73,_ZSt7forwardISt17_Rb_tree_iteratorISt4pairIKN5boost16exception_detail10type_info_ENS2_10shared_ptrINS3_15error_info_baseEEEEEEOT_RNSt16remove_referenceISB_E4typeE
FN:73,_ZSt7forwardISt5tupleIJRKN5boost16exception_detail10type_info_EEEEOT_RNSt16remove_referenceIS7_E4typeE
FN:73,_ZSt7forwardIRPSt13_Rb_tree_nodeISt4pairIKN5boost16exception_detail10type_info_ENS2_10shared_ptrINS3_15error_info_baseEEEEEEOT_RNSt16remove_referenceISD_E4typeE
FN:73,_ZSt7forwardISt5tupleIJEEEOT_RNSt16remove_referenceIS2_E4typeE
FN:73,_ZSt7forwardIN5boost16exception_detail10type_info_EEOT_RNSt16remove_referenceIS3_E4typeE
FN:73,_ZSt7forwardIRKN5boost16exception_detail10type_info_EEOT_RNSt16remove_referenceIS5_E4typeE
FN:73,_ZSt7forwardIbEOT_RNSt16remove_referenceIS0_E4typeE
FN:98,_ZSt4moveIRPN5boost16exception_detail15error_info_baseEEONSt16remove_referenceIT_E4typeEOS6_
FN:187,_ZSt4swapIPN5boost16exception_detail15error_info_baseEENSt9enable_ifIXsrSt6__and_IJSt6__not_ISt15__is_tuple_likeIT_EESt21is_move_constructibleIS8_ESt18is_move_assignableIS8_EEE5valueEvE4typeERS8_SI_
FNDA:0,_ZSt7forwardIN5boost10shared_ptrINS0_16exception_detail15error_info_baseEEEEOT_RNSt16remove_referenceIS5_E4typeE
FNDA:0,_ZSt7forwardIN5boost16exception_detail10type_info_EEOT_RNSt16remove_referenceIS3_E4typeE
FNDA:0,_ZSt7forwardIbEOT_RNSt16remove_referenceIS0_E4typeE
FNDA:0,_ZSt7forwardISt17_Rb_tree_iteratorISt4pairIKN5boost16exception_detail10type_info_ENS2_10shared_ptrINS3_15error_info_baseEEEEEEOT_RNSt16remove_referenceISB_E4typeE
FNDA:0,_ZSt7forwardIRPSt13_Rb_tree_nodeISt4pairIKN5boost16exception_detail10type_info_ENS2_10shared_ptrINS3_15error_info_baseEEEEEEOT_RNSt16remove_referenceISD_E4typeE
FNDA:0,_ZSt7forwardIRPSt18_Rb_tree_node_baseEOT_RNSt16remove_referenceIS3_E4typeE
FNDA:0,_ZSt7forwardISt5tupleIJEEEOT_RNSt16remove_referenceIS2_E4typeE
FNDA:0,_ZSt7forwardISt5tupleIJRKN5boost16exception_detail10type_info_EEEEOT_RNSt16remove_referenceIS7_E4typeE
FNDA:0,_ZSt7forwardIRKSt21piecewise_construct_tEOT_RNSt16remove_referenceIS3_E4typeE
FNDA:0,_ZSt7forwardISt4pairIN5boost16exception_detail10type_info_ENS1_10shared_ptrINS2_15error_info_baseEEEEEOT_RNSt16remove_referenceIS8_E4typeE
FNDA:0,_ZSt7forwardIRN5boost10shared_ptrINS0_16exception_detail15error_info_baseEEEEOT_RNSt16remove_referenceIS6_E4typeE
FNDA:0,_ZSt7forwardIRKN5boost16exception_detail10type_info_EEOT_RNSt16remove_referenceIS5_E4typeE
FNDA:0,_ZSt4moveIRPN5boost16exception_detail15error_info_baseEEONSt16remove_referenceIT_E4typeEOS6_
FNDA:0,_ZSt4swapIPN5boost16exception_detail15error_info_baseEENSt9enable_ifIXsrSt6__and_IJSt6__not_ISt15__is_tuple_likeIT_EESt21is_move_constructibleIS8_ESt18is_move_assignableIS8_EEE5valueEvE4typeERS8_SI_
FNF:14
FNH:0
DA:73,0
DA:74,0
DA:98,0
DA:99,0
DA:187,0
DA:198,0
DA:199,0
DA:200,0
DA:201,0
LF:9
LH:0
end_of_record
SF:/usr/include/c++/7/bits/stl_function.h
FN:385,_ZNKSt4lessIN5boost16exception_detail10type_info_EEclERKS2_S5_
FN:890,_ZNKSt10_Select1stISt4pairIKN5boost16exception_detail10type_info_ENS1_10shared_ptrINS2_15error_info_baseEEEEEclERKS8_
FN:896,_ZNKSt10_Select1stISt4pairIKN5boost16exception_detail10type_info_ENS1_10shared_ptrINS2_15error_info_baseEEEEEclIS0_IS3_S7_EEERNT_10first_typeERSC_
FNDA:0,_ZNKSt4lessIN5boost16exception_detail10type_info_EEclERKS2_S5_
FNDA:0,_ZNKSt10_Select1stISt4pairIKN5boost16exception_detail10type_info_ENS1_10shared_ptrINS2_15error_info_baseEEEEEclERKS8_
FNDA:0,_ZNKSt10_Select1stISt4pairIKN5boost16exception_detail10type_info_ENS1_10shared_ptrINS2_15error_info_baseEEEEEclIS0_IS3_S7_EEERNT_10first_typeERSC_
FNF:3
FNH:0
DA:385,0
DA:386,0
DA:890,0
DA:891,0
DA:896,0
DA:897,0
LF:6
LH:0
end_of_record
SF:/usr/include/c++/7/bits/stl_map.h
FN:177,_ZNSt3mapIN5boost16exception_detail10type_info_ENS0_10shared_ptrINS1_15error_info_baseEEESt4lessIS2_ESaISt4pairIKS2_S5_EEEC2Ev
FN:294,_ZNSt3mapIN5boost16exception_detail10type_info_ENS0_10shared_ptrINS1_15error_info_baseEEESt4lessIS2_ESaISt4pairIKS2_S5_EEED2Ev
FN:357,_ZNKSt3mapIN5boost16exception_detail10type_info_ENS0_10shared_ptrINS1_15error_info_baseEEESt4lessIS2_ESaISt4pairIKS2_S5_EEE5beginEv
FN:366,_ZNSt3mapIN5boost16exception_detail10type_info_ENS0_10shared_ptrINS1_15error_info_baseEEESt4lessIS2_ESaISt4pairIKS2_S5_EEE3endEv
FN:375,_ZNKSt3mapIN5boost16exception_detail10type_info_ENS0_10shared_ptrINS1_15error_info_baseEEESt4lessIS2_ESaISt4pairIKS2_S5_EEE3endEv
FN:484,_ZNSt3mapIN5boost16exception_detail10type_info_ENS0_10shared_ptrINS1_15error_info_baseEEESt4lessIS2_ESaISt4pairIKS2_S5_EEEixERS9_
FN:809,_ZNSt3mapIN5boost16exception_detail10type_info_ENS0_10shared_ptrINS1_15error_info_baseEEESt4lessIS2_ESaISt4pairIKS2_S5_EEE6insertIS8_IS2_S5_EvEES8_ISt17_Rb_tree_iteratorISA_EbEOT_
FN:1136,_ZNKSt3mapIN5boost16exception_detail10type_info_ENS0_10shared_ptrINS1_15error_info_baseEEESt4lessIS2_ESaISt4pairIKS2_S5_EEE8key_compEv
FN:1188,_ZNKSt3mapIN5boost16exception_detail10type_info_ENS0_10shared_ptrINS1_15error_info_baseEEESt4lessIS2_ESaISt4pairIKS2_S5_EEE4findERS9_
FN:1233,_ZNSt3mapIN5boost16exception_detail10type_info_ENS0_10shared_ptrINS1_15error_info_baseEEESt4lessIS2_ESaISt4pairIKS2_S5_EEE11lower_boundERS9_
FNDA:0,_ZNSt3mapIN5boost16exception_detail10type_info_ENS0_10shared_ptrINS1_15error_info_baseEEESt4lessIS2_ESaISt4pairIKS2_S5_EEEC2Ev
FNDA:0,_ZNSt3mapIN5boost16exception_detail10type_info_ENS0_10shared_ptrINS1_15error_info_baseEEESt4lessIS2_ESaISt4pairIKS2_S5_EEED2Ev
FNDA:0,_ZNKSt3mapIN5boost16exception_detail10type_info_ENS0_10shared_ptrINS1_15error_info_baseEEESt4lessIS2_ESaISt4pairIKS2_S5_EEE5beginEv
FNDA:0,_ZNSt3mapIN5boost16exception_detail10type_info_ENS0_10shared_ptrINS1_15error_info_baseEEESt4lessIS2_ESaISt4pairIKS2_S5_EEE3endEv
FNDA:0,_ZNKSt3mapIN5boost16exception_detail10type_info_ENS0_10shared_ptrINS1_15error_info_baseEEESt4lessIS2_ESaISt4pairIKS2_S5_EEE3endEv
FNDA:0,_ZNSt3mapIN5boost16exception_detail10type_info_ENS0_10shared_ptrINS1_15error_info_baseEEESt4lessIS2_ESaISt4pairIKS2_S5_EEEixERS9_
FNDA:0,_ZNSt3mapIN5boost16exception_detail10type_info_ENS0_10shared_ptrINS1_15error_info_baseEEESt4lessIS2_ESaISt4pairIKS2_S5_EEE6insertIS8_IS2_S5_EvEES8_ISt17_Rb_tree_iteratorISA_EbEOT_
FNDA:0,_ZNKSt3mapIN5boost16exception_detail10type_info_ENS0_10shared_ptrINS1_15error_info_baseEEESt4lessIS2_ESaISt4pairIKS2_S5_EEE8key_compEv
FNDA:0,_ZNKSt3mapIN5boost16exception_detail10type_info_ENS0_10shared_ptrINS1_15error_info_baseEEESt4lessIS2_ESaISt4pairIKS2_S5_EEE4findERS9_
FNDA:0,_ZNSt3mapIN5boost16exception_detail10type_info_ENS0_10shared_ptrINS1_15error_info_baseEEESt4lessIS2_ESaISt4pairIKS2_S5_EEE11lower_boundERS9_
FNF:10
FNH:0
DA:177,0
DA:294,0
DA:357,0
DA:358,0
DA:366,0
DA:367,0
DA:375,0
DA:376,0
DA:484,0
DA:489,0
DA:491,0
DA:493,0
DA:499,0
DA:809,0
DA:810,0
DA:1136,0
DA:1137,0
DA:1188,0
DA:1189,0
DA:1233,0
DA:1234,0
LF:21
LH:0
end_of_record
SF:/usr/include/c++/7/bits/stl_pair.h
FN:198,_ZNSt4pairIN5boost16exception_detail10type_info_ENS0_10shared_ptrINS1_15error_info_baseEEEED2Ev
FN:198,_ZNSt4pairIKN5boost16exception_detail10type_info_ENS0_10shared_ptrINS1_15error_info_baseEEEED2Ev
FN:300,_ZNSt4pairIPSt18_Rb_tree_node_baseS1_EC2IRS1_Lb1EEEOT_RKS1_
FN:314,_ZNSt4pairIPSt18_Rb_tree_node_baseS1_EC2IRS1_Lb1EEERKS1_OT_
FN:314,_ZNSt4pairIN5boost16exception_detail10type_info_ENS0_10shared_ptrINS1_15error_info_baseEEEEC2IRS5_Lb1EEERKS2_OT_
FN:330,_ZNSt4pairISt17_Rb_tree_iteratorIS_IKN5boost16exception_detail10type_info_ENS1_10shared_ptrINS2_15error_info_baseEEEEEbEC2IS9_bLb1EEEOT_OT0_
FN:330,_ZNSt4pairIPSt18_Rb_tree_node_baseS1_EC2IRS1_S4_Lb1EEEOT_OT0_
FN:330,_ZNSt4pairIPSt18_Rb_tree_node_baseS1_EC2IRPSt13_Rb_tree_nodeIS_IKN5boost16exception_detail10type_info_ENS5_10shared_ptrINS6_15error_info_baseEEEEERS1_Lb1EEEOT_OT0_
FN:349,_ZNSt4pairIKN5boost16exception_detail10type_info_ENS0_10shared_ptrINS1_15error_info_baseEEEEC2IS2_S6_Lb1EEEOS_IT_T0_E
FN:519,_ZSt9make_pairIRKN5boost16exception_detail10type_info_ERNS0_10shared_ptrINS1_15error_info_baseEEEESt4pairINSt17__decay_and_stripIT_E6__typeENSA_IT0_E6__typeEEOSB_OSE_
FNDA:0,_ZNSt4pairIKN5boost16exception_detail10type_info_ENS0_10shared_ptrINS1_15error_info_baseEEEED2Ev
FNDA:0,_ZNSt4pairIN5boost16exception_detail10type_info_ENS0_10shared_ptrINS1_15error_info_baseEEEED2Ev
FNDA:0,_ZNSt4pairIPSt18_Rb_tree_node_baseS1_EC2IRS1_Lb1EEEOT_RKS1_
FNDA:0,_ZNSt4pairIPSt18_Rb_tree_node_baseS1_EC2IRS1_Lb1EEERKS1_OT_
FNDA:0,_ZNSt4pairIN5boost16exception_detail10type_info_ENS0_10shared_ptrINS1_15error_info_baseEEEEC2IRS5_Lb1EEERKS2_OT_
FNDA:0,_ZNSt4pairISt17_Rb_tree_iteratorIS_IKN5boost16exception_detail10type_info_ENS1_10shared_ptrINS2_15error_info_baseEEEEEbEC2IS9_bLb1EEEOT_OT0_
FNDA:0,_ZNSt4pairIPSt18_Rb_tree_node_baseS1_EC2IRPSt13_Rb_tree_nodeIS_IKN5boost16exception_detail10type_info_ENS5_10shared_ptrINS6_15error_info_baseEEEEERS1_Lb1EEEOT_OT0_
FNDA:0,_ZNSt4pairIPSt18_Rb_tree_node_baseS1_EC2IRS1_S4_Lb1EEEOT_OT0_
FNDA:0,_ZNSt4pairIKN5boost16exception_detail10type_info_ENS0_10shared_ptrINS1_15error_info_baseEEEEC2IS2_S6_Lb1EEEOS_IT_T0_E
FNDA:0,_ZSt9make_pairIRKN5boost16exception_detail10type_info_ERNS0_10shared_ptrINS1_15error_info_baseEEEESt4pairINSt17__decay_and_stripIT_E6__typeENSA_IT0_E6__typeEEOSB_OSE_
FNF:10
FNH:0
DA:198,0
DA:300,0
DA:301,0
DA:314,0
DA:315,0
DA:330,0
DA:331,0
DA:349,0
DA:350,0
DA:351,0
DA:519,0
DA:524,0
LF:12
LH:0
end_of_record
SF:/usr/include/c++/7/bits/stl_tree.h
FN:146,_ZNSt20_Rb_tree_key_compareISt4lessIN5boost16exception_detail10type_info_EEEC2Ev
FN:173,_ZNSt15_Rb_tree_headerC2Ev
FN:206,_ZNSt15_Rb_tree_header8_M_resetEv
FN:234,_ZNSt13_Rb_tree_nodeISt4pairIKN5boost16exception_detail10type_info_ENS1_10shared_ptrINS2_15error_info_baseEEEEE9_M_valptrEv
FN:238,_ZNKSt13_Rb_tree_nodeISt4pairIKN5boost16exception_detail10type_info_ENS1_10shared_ptrINS2_15error_info_baseEEEEE9_M_valptrEv
FN:273,_ZNSt17_Rb_tree_iteratorISt4pairIKN5boost16exception_detail10type_info_ENS1_10shared_ptrINS2_15error_info_baseEEEEEC2EPSt18_Rb_tree_node_base
FN:277,_ZNKSt17_Rb_tree_iteratorISt4pairIKN5boost16exception_detail10type_info_ENS1_10shared_ptrINS2_15error_info_baseEEEEEdeEv
FN:285,_ZNSt17_Rb_tree_iteratorISt4pairIKN5boost16exception_detail10type_info_ENS1_10shared_ptrINS2_15error_info_baseEEEEEppEv
FN:300,_ZNSt17_Rb_tree_iteratorISt4pairIKN5boost16exception_detail10type_info_ENS1_10shared_ptrINS2_15error_info_baseEEEEEmmEv
FN:315,_ZNKSt17_Rb_tree_iteratorISt4pairIKN5boost16exception_detail10type_info_ENS1_10shared_ptrINS2_15error_info_baseEEEEEeqERKS9_
FN:345,_ZNSt23_Rb_tree_const_iteratorISt4pairIKN5boost16exception_detail10type_info_ENS1_10shared_ptrINS2_15error_info_baseEEEEEC2EPKSt18_Rb_tree_node_base
FN:348,_ZNSt23_Rb_tree_const_iteratorISt4pairIKN5boost16exception_detail10type_info_ENS1_10shared_ptrINS2_15error_info_baseEEEEEC2ERKSt17_Rb_tree_iteratorIS8_E
FN:352,_ZNKSt23_Rb_tree_const_iteratorISt4pairIKN5boost16exception_detail10type_info_ENS1_10shared_ptrINS2_15error_info_baseEEEEE13_M_const_castEv
FN:360,_ZNKSt23_Rb_tree_const_iteratorISt4pairIKN5boost16exception_detail10type_info_ENS1_10shared_ptrINS2_15error_info_baseEEEEEptEv
FN:364,_ZNSt23_Rb_tree_const_iteratorISt4pairIKN5boost16exception_detail10type_info_ENS1_10shared_ptrINS2_15error_info_baseEEEEEppEv
FN:394,_ZNKSt23_Rb_tree_const_iteratorISt4pairIKN5boost16exception_detail10type_info_ENS1_10shared_ptrINS2_15error_info_baseEEEEEeqERKS9_
FN:398,_ZNKSt23_Rb_tree_const_iteratorISt4pairIKN5boost16exception_detail10type_info_ENS1_10shared_ptrINS2_15error_info_baseEEEEEneERKS9_
FN:546,_ZNSt8_Rb_treeIN5boost16exception_detail10type_info_ESt4pairIKS2_NS0_10shared_ptrINS1_15error_info_baseEEEESt10_Select1stIS8_ESt4lessIS2_ESaIS8_EE11_Alloc_nodeC2ERSE_
FN:554,_ZNKSt8_Rb_treeIN5boost16exception_detail10type_info_ESt4pairIKS2_NS0_10shared_ptrINS1_15error_info_baseEEEESt10_Select1stIS8_ESt4lessIS2_ESaIS8_EE11_Alloc_nodeclIS3_IS2_S7_EEEPSt13_Rb_tree_nodeIS8_EOT_
FN:574,_ZNSt8_Rb_treeIN5boost16exception_detail10type_info_ESt4pairIKS2_NS0_10shared_ptrINS1_15error_info_baseEEEESt10_Select1stIS8_ESt4lessIS2_ESaIS8_EE21_M_get_Node_allocatorEv
FN:587,_ZNSt8_Rb_treeIN5boost16exception_detail10type_info_ESt4pairIKS2_NS0_10shared_ptrINS1_15error_info_baseEEEESt10_Select1stIS8_ESt4lessIS2_ESaIS8_EE11_M_get_nodeEv
FN:591,_ZNSt8_Rb_treeIN5boost16exception_detail10type_info_ESt4pairIKS2_NS0_10shared_ptrINS1_15error_info_baseEEEESt10_Select1stIS8_ESt4lessIS2_ESaIS8_EE11_M_put_nodeEPSt13_Rb_tree_nodeIS8_E
FN:621,_ZNSt8_Rb_treeIN5boost16exception_detail10type_info_ESt4pairIKS2_NS0_10shared_ptrINS1_15error_info_baseEEEESt10_Select1stIS8_ESt4lessIS2_ESaIS8_EE17_M_construct_nodeIJRKSt21piecewise_construct_tSt5tupleIJRS4_EESJ_IJEEEEEvPSt13_Rb_tree_nodeIS8_EDpOT_
FN:621,_ZNSt8_Rb_treeIN5boost16exception_detail10type_info_ESt4pairIKS2_NS0_10shared_ptrINS1_15error_info_baseEEEESt10_Select1stIS8_ESt4lessIS2_ESaIS8_EE17_M_construct_nodeIJS3_IS2_S7_EEEEvPSt13_Rb_tree_nodeIS8_EDpOT_
FN:640,_ZNSt8_Rb_treeIN5boost16exception_detail10type_info_ESt4pairIKS2_NS0_10shared_ptrINS1_15error_info_baseEEEESt10_Select1stIS8_ESt4lessIS2_ESaIS8_EE14_M_create_nodeIJS3_IS2_S7_EEEEPSt13_Rb_tree_nodeIS8_EDpOT_
FN:640,_ZNSt8_Rb_treeIN5boost16exception_detail10type_info_ESt4pairIKS2_NS0_10shared_ptrINS1_15error_info_baseEEEESt10_Select1stIS8_ESt4lessIS2_ESaIS8_EE14_M_create_nodeIJRKSt21piecewise_construct_tSt5tupleIJRS4_EESJ_IJEEEEEPSt13_Rb_tree_nodeIS8_EDpOT_
FN:648,_ZNSt8_Rb_treeIN5boost16exception_detail10type_info_ESt4pairIKS2_NS0_10shared_ptrINS1_15error_info_baseEEEESt10_Select1stIS8_ESt4lessIS2_ESaIS8_EE15_M_destroy_nodeEPSt13_Rb_tree_nodeIS8_E
FN:656,_ZNSt8_Rb_treeIN5boost16exception_detail10type_info_ESt4pairIKS2_NS0_10shared_ptrINS1_15error_info_baseEEEESt10_Select1stIS8_ESt4lessIS2_ESaIS8_EE12_M_drop_nodeEPSt13_Rb_tree_nodeIS8_E
FN:677,_ZNSt8_Rb_treeIN5boost16exception_detail10type_info_ESt4pairIKS2_NS0_10shared_ptrINS1_15error_info_baseEEEESt10_Select1stIS8_ESt4lessIS2_ESaIS8_EE13_Rb_tree_implISC_Lb1EED2Ev
FN:688,_ZNSt8_Rb_treeIN5boost16exception_detail10type_info_ESt4pairIKS2_NS0_10shared_ptrINS1_15error_info_baseEEEESt10_Select1stIS8_ESt4lessIS2_ESaIS8_EE13_Rb_tree_implISC_Lb1EEC2Ev
FN:720,_ZNSt8_Rb_treeIN5boost16exception_detail10type_info_ESt4pairIKS2_NS0_10shared_ptrINS1_15error_info_baseEEEESt10_Select1stIS8_ESt4lessIS2_ESaIS8_EE11_M_leftmostEv
FN:728,_ZNSt8_Rb_treeIN5boost16exception_detail10type_info_ESt4pairIKS2_NS0_10shared_ptrINS1_15error_info_baseEEEESt10_Select1stIS8_ESt4lessIS2_ESaIS8_EE12_M_rightmostEv
FN:736,_ZNSt8_Rb_treeIN5boost16exception_detail10type_info_ESt4pairIKS2_NS0_10shared_ptrINS1_15error_info_baseEEEESt10_Select1stIS8_ESt4lessIS2_ESaIS8_EE8_M_beginEv
FN:740,_ZNKSt8_Rb_treeIN5boost16exception_detail10type_info_ESt4pairIKS2_NS0_10shared_ptrINS1_15error_info_baseEEEESt10_Select1stIS8_ESt4lessIS2_ESaIS8_EE8_M_beginEv
FN:747,_ZNSt8_Rb_treeIN5boost16exception_detail10type_info_ESt4pairIKS2_NS0_10shared_ptrINS1_15error_info_baseEEEESt10_Select1stIS8_ESt4lessIS2_ESaIS8_EE6_M_endEv
FN:751,_ZNKSt8_Rb_treeIN5boost16exception_detail10type_info_ESt4pairIKS2_NS0_10shared_ptrINS1_15error_info_baseEEEESt10_Select1stIS8_ESt4lessIS2_ESaIS8_EE6_M_endEv
FN:755,_ZNSt8_Rb_treeIN5boost16exception_detail10type_info_ESt4pairIKS2_NS0_10shared_ptrINS1_15error_info_baseEEEESt10_Select1stIS8_ESt4lessIS2_ESaIS8_EE8_S_valueEPKSt13_Rb_tree_nodeIS8_E
FN:759,_ZNSt8_Rb_treeIN5boost16exception_detail10type_info_ESt4pairIKS2_NS0_10shared_ptrINS1_15error_info_baseEEEESt10_Select1stIS8_ESt4lessIS2_ESaIS8_EE6_S_keyEPKSt13_Rb_tree_nodeIS8_E
FN:763,_ZNSt8_Rb_treeIN5boost16exception_detail10type_info_ESt4pairIKS2_NS0_10shared_ptrINS1_15error_info_baseEEEESt10_Select1stIS8_ESt4lessIS2_ESaIS8_EE7_S_leftEPSt18_Rb_tree_node_base
FN:767,_ZNSt8_Rb_treeIN5boost16exception_detail10type_info_ESt4pairIKS2_NS0_10shared_ptrINS1_15error_info_baseEEEESt10_Select1stIS8_ESt4lessIS2_ESaIS8_EE7_S_leftEPKSt18_Rb_tree_node_base
FN:771,_ZNSt8_Rb_treeIN5boost16exception_detail10type_info_ESt4pairIKS2_NS0_10shared_ptrINS1_15error_info_baseEEEESt10_Select1stIS8_ESt4lessIS2_ESaIS8_EE8_S_rightEPSt18_Rb_tree_node_base
FN:775,_ZNSt8_Rb_treeIN5boost16exception_detail10type_info_ESt4pairIKS2_NS0_10shared_ptrINS1_15error_info_baseEEEESt10_Select1stIS8_ESt4lessIS2_ESaIS8_EE8_S_rightEPKSt18_Rb_tree_node_base
FN:779,_ZNSt8_Rb_treeIN5boost16exception_detail10type_info_ESt4pairIKS2_NS0_10shared_ptrINS1_15error_info_baseEEEESt10_Select1stIS8_ESt4lessIS2_ESaIS8_EE8_S_valueEPKSt18_Rb_tree_node_base
FN:783,_ZNSt8_Rb_treeIN5boost16exception_detail10type_info_ESt4pairIKS2_NS0_10shared_ptrINS1_15error_info_baseEEEESt10_Select1stIS8_ESt4lessIS2_ESaIS8_EE6_S_keyEPKSt18_Rb_tree_node_base
FN:913,_ZNSt8_Rb_treeIN5boost16exception_detail10type_info_ESt4pairIKS2_NS0_10shared_ptrINS1_15error_info_baseEEEESt10_Select1stIS8_ESt4lessIS2_ESaIS8_EEC2Ev
FN:948,_ZNSt8_Rb_treeIN5boost16exception_detail10type_info_ESt4pairIKS2_NS0_10shared_ptrINS1_15error_info_baseEEEESt10_Select1stIS8_ESt4lessIS2_ESaIS8_EED2Ev
FN:956,_ZNKSt8_Rb_treeIN5boost16exception_detail10type_info_ESt4pairIKS2_NS0_10shared_ptrINS1_15error_info_baseEEEESt10_Select1stIS8_ESt4lessIS2_ESaIS8_EE8key_compEv
FN:960,_ZNSt8_Rb_treeIN5boost16exception_detail10type_info_ESt4pairIKS2_NS0_10shared_ptrINS1_15error_info_baseEEEESt10_Select1stIS8_ESt4lessIS2_ESaIS8_EE5beginEv
FN:964,_ZNKSt8_Rb_treeIN5boost16exception_detail10type_info_ESt4pairIKS2_NS0_10shared_ptrINS1_15error_info_baseEEEESt10_Select1stIS8_ESt4lessIS2_ESaIS8_EE5beginEv
FN:968,_ZNSt8_Rb_treeIN5boost16exception_detail10type_info_ESt4pairIKS2_NS0_10shared_ptrINS1_15error_info_baseEEEESt10_Select1stIS8_ESt4lessIS2_ESaIS8_EE3endEv
FN:972,_ZNKSt8_Rb_treeIN5boost16exception_detail10type_info_ESt4pairIKS2_NS0_10shared_ptrINS1_15error_info_baseEEEESt10_Select1stIS8_ESt4lessIS2_ESaIS8_EE3endEv
FN:996,_ZNKSt8_Rb_treeIN5boost16exception_detail10type_info_ESt4pairIKS2_NS0_10shared_ptrINS1_15error_info_baseEEEESt10_Select1stIS8_ESt4lessIS2_ESaIS8_EE4sizeEv
FN:1186,_ZNSt8_Rb_treeIN5boost16exception_detail10type_info_ESt4pairIKS2_NS0_10shared_ptrINS1_15error_info_baseEEEESt10_Select1stIS8_ESt4lessIS2_ESaIS8_EE11lower_boundERS4_
FN:1740,_ZNSt8_Rb_treeIN5boost16exception_detail10type_info_ESt4pairIKS2_NS0_10shared_ptrINS1_15error_info_baseEEEESt10_Select1stIS8_ESt4lessIS2_ESaIS8_EE10_M_insert_IS3_IS2_S7_ENSE_11_Alloc_nodeEEESt17_Rb_tree_iteratorIS8_EPSt18_Rb_tree_node_baseSL_OT_RT0_
FN:1850,_ZNSt8_Rb_treeIN5boost16exception_detail10type_info_ESt4pairIKS2_NS0_10shared_ptrINS1_15error_info_baseEEEESt10_Select1stIS8_ESt4lessIS2_ESaIS8_EE8_M_eraseEPSt13_Rb_tree_nodeIS8_E
FN:1867,_ZNSt8_Rb_treeIN5boost16exception_detail10type_info_ESt4pairIKS2_NS0_10shared_ptrINS1_15error_info_baseEEEESt10_Select1stIS8_ESt4lessIS2_ESaIS8_EE14_M_lower_boundEPSt13_Rb_tree_nodeIS8_EPSt18_Rb_tree_node_baseRS4_
FN:1883,_ZNKSt8_Rb_treeIN5boost16exception_detail10type_info_ESt4pairIKS2_NS0_10shared_ptrINS1_15error_info_baseEEEESt10_Select1stIS8_ESt4lessIS2_ESaIS8_EE14_M_lower_boundEPKSt13_Rb_tree_nodeIS8_EPKSt18_Rb_tree_node_baseRS4_
FN:2028,_ZNSt8_Rb_treeIN5boost16exception_detail10type_info_ESt4pairIKS2_NS0_10shared_ptrINS1_15error_info_baseEEEESt10_Select1stIS8_ESt4lessIS2_ESaIS8_EE24_M_get_insert_unique_posERS4_
FN:2082,_ZNSt8_Rb_treeIN5boost16exception_detail10type_info_ESt4pairIKS2_NS0_10shared_ptrINS1_15error_info_baseEEEESt10_Select1stIS8_ESt4lessIS2_ESaIS8_EE16_M_insert_uniqueIS3_IS2_S7_EEES3_ISt17_Rb_tree_iteratorIS8_EbEOT_
FN:2130,_ZNSt8_Rb_treeIN5boost16exception_detail10type_info_ESt4pairIKS2_NS0_10shared_ptrINS1_15error_info_baseEEEESt10_Select1stIS8_ESt4lessIS2_ESaIS8_EE29_M_get_insert_hint_unique_posESt23_Rb_tree_const_iteratorIS8_ERS4_
FN:2297,_ZNSt8_Rb_treeIN5boost16exception_detail10type_info_ESt4pairIKS2_NS0_10shared_ptrINS1_15error_info_baseEEEESt10_Select1stIS8_ESt4lessIS2_ESaIS8_EE14_M_insert_nodeEPSt18_Rb_tree_node_baseSG_PSt13_Rb_tree_nodeIS8_E
FN:2395,_ZNSt8_Rb_treeIN5boost16exception_detail10type_info_ESt4pairIKS2_NS0_10shared_ptrINS1_15error_info_baseEEEESt10_Select1stIS8_ESt4lessIS2_ESaIS8_EE22_M_emplace_hint_uniqueIJRKSt21piecewise_construct_tSt5tupleIJRS4_EESJ_IJEEEEESt17_Rb_tree_iteratorIS8_ESt23_Rb_tree_const_iteratorIS8_EDpOT_
FN:2533,_ZNKSt8_Rb_treeIN5boost16exception_detail10type_info_ESt4pairIKS2_NS0_10shared_ptrINS1_15error_info_baseEEEESt10_Select1stIS8_ESt4lessIS2_ESaIS8_EE4findERS4_
FNDA:0,_ZNSt20_Rb_tree_key_compareISt4lessIN5boost16exception_detail10type_info_EEEC2Ev
FNDA:0,_ZNSt15_Rb_tree_headerC2Ev
FNDA:0,_ZNSt15_Rb_tree_header8_M_resetEv
FNDA:0,_ZNSt13_Rb_tree_nodeISt4pairIKN5boost16exception_detail10type_info_ENS1_10shared_ptrINS2_15error_info_baseEEEEE9_M_valptrEv
FNDA:0,_ZNKSt13_Rb_tree_nodeISt4pairIKN5boost16exception_detail10type_info_ENS1_10shared_ptrINS2_15error_info_baseEEEEE9_M_valptrEv
FNDA:0,_ZNSt17_Rb_tree_iteratorISt4pairIKN5boost16exception_detail10type_info_ENS1_10shared_ptrINS2_15error_info_baseEEEEEC2EPSt18_Rb_tree_node_base
FNDA:0,_ZNKSt17_Rb_tree_iteratorISt4pairIKN5boost16exception_detail10type_info_ENS1_10shared_ptrINS2_15error_info_baseEEEEEdeEv
FNDA:0,_ZNSt17_Rb_tree_iteratorISt4pairIKN5boost16exception_detail10type_info_ENS1_10shared_ptrINS2_15error_info_baseEEEEEppEv
FNDA:0,_ZNSt17_Rb_tree_iteratorISt4pairIKN5boost16exception_detail10type_info_ENS1_10shared_ptrINS2_15error_info_baseEEEEEmmEv
FNDA:0,_ZNKSt17_Rb_tree_iteratorISt4pairIKN5boost16exception_detail10type_info_ENS1_10shared_ptrINS2_15error_info_baseEEEEEeqERKS9_
FNDA:0,_ZNSt23_Rb_tree_const_iteratorISt4pairIKN5boost16exception_detail10type_info_ENS1_10shared_ptrINS2_15error_info_baseEEEEEC2EPKSt18_Rb_tree_node_base
FNDA:0,_ZNSt23_Rb_tree_const_iteratorISt4pairIKN5boost16exception_detail10type_info_ENS1_10shared_ptrINS2_15error_info_baseEEEEEC2ERKSt17_Rb_tree_iteratorIS8_E
FNDA:0,_ZNKSt23_Rb_tree_const_iteratorISt4pairIKN5boost16exception_detail10type_info_ENS1_10shared_ptrINS2_15error_info_baseEEEEE13_M_const_castEv
FNDA:0,_ZNKSt23_Rb_tree_const_iteratorISt4pairIKN5boost16exception_detail10type_info_ENS1_10shared_ptrINS2_15error_info_baseEEEEEptEv
FNDA:0,_ZNSt23_Rb_tree_const_iteratorISt4pairIKN5boost16exception_detail10type_info_ENS1_10shared_ptrINS2_15error_info_baseEEEEEppEv
FNDA:0,_ZNKSt23_Rb_tree_const_iteratorISt4pairIKN5boost16exception_detail10type_info_ENS1_10shared_ptrINS2_15error_info_baseEEEEEeqERKS9_
FNDA:0,_ZNKSt23_Rb_tree_const_iteratorISt4pairIKN5boost16exception_detail10type_info_ENS1_10shared_ptrINS2_15error_info_baseEEEEEneERKS9_
FNDA:0,_ZNSt8_Rb_treeIN5boost16exception_detail10type_info_ESt4pairIKS2_NS0_10shared_ptrINS1_15error_info_baseEEEESt10_Select1stIS8_ESt4lessIS2_ESaIS8_EE11_Alloc_nodeC2ERSE_
FNDA:0,_ZNKSt8_Rb_treeIN5boost16exception_detail10type_info_ESt4pairIKS2_NS0_10shared_ptrINS1_15error_info_baseEEEESt10_Select1stIS8_ESt4lessIS2_ESaIS8_EE11_Alloc_nodeclIS3_IS2_S7_EEEPSt13_Rb_tree_nodeIS8_EOT_
FNDA:0,_ZNSt8_Rb_treeIN5boost16exception_detail10type_info_ESt4pairIKS2_NS0_10shared_ptrINS1_15error_info_baseEEEESt10_Select1stIS8_ESt4lessIS2_ESaIS8_EE21_M_get_Node_allocatorEv
FNDA:0,_ZNSt8_Rb_treeIN5boost16exception_detail10type_info_ESt4pairIKS2_NS0_10shared_ptrINS1_15error_info_baseEEEESt10_Select1stIS8_ESt4lessIS2_ESaIS8_EE11_M_get_nodeEv
FNDA:0,_ZNSt8_Rb_treeIN5boost16exception_detail10type_info_ESt4pairIKS2_NS0_10shared_ptrINS1_15error_info_baseEEEESt10_Select1stIS8_ESt4lessIS2_ESaIS8_EE11_M_put_nodeEPSt13_Rb_tree_nodeIS8_E
FNDA:0,_ZNSt8_Rb_treeIN5boost16exception_detail10type_info_ESt4pairIKS2_NS0_10shared_ptrINS1_15error_info_baseEEEESt10_Select1stIS8_ESt4lessIS2_ESaIS8_EE17_M_construct_nodeIJS3_IS2_S7_EEEEvPSt13_Rb_tree_nodeIS8_EDpOT_
FNDA:0,_ZNSt8_Rb_treeIN5boost16exception_detail10type_info_ESt4pairIKS2_NS0_10shared_ptrINS1_15error_info_baseEEEESt10_Select1stIS8_ESt4lessIS2_ESaIS8_EE17_M_construct_nodeIJRKSt21piecewise_construct_tSt5tupleIJRS4_EESJ_IJEEEEEvPSt13_Rb_tree_nodeIS8_EDpOT_
FNDA:0,_ZNSt8_Rb_treeIN5boost16exception_detail10type_info_ESt4pairIKS2_NS0_10shared_ptrINS1_15error_info_baseEEEESt10_Select1stIS8_ESt4lessIS2_ESaIS8_EE14_M_create_nodeIJS3_IS2_S7_EEEEPSt13_Rb_tree_nodeIS8_EDpOT_
FNDA:0,_ZNSt8_Rb_treeIN5boost16exception_detail10type_info_ESt4pairIKS2_NS0_10shared_ptrINS1_15error_info_baseEEEESt10_Select1stIS8_ESt4lessIS2_ESaIS8_EE14_M_create_nodeIJRKSt21piecewise_construct_tSt5tupleIJRS4_EESJ_IJEEEEEPSt13_Rb_tree_nodeIS8_EDpOT_
FNDA:0,_ZNSt8_Rb_treeIN5boost16exception_detail10type_info_ESt4pairIKS2_NS0_10shared_ptrINS1_15error_info_baseEEEESt10_Select1stIS8_ESt4lessIS2_ESaIS8_EE15_M_destroy_nodeEPSt13_Rb_tree_nodeIS8_E
FNDA:0,_ZNSt8_Rb_treeIN5boost16exception_detail10type_info_ESt4pairIKS2_NS0_10shared_ptrINS1_15error_info_baseEEEESt10_Select1stIS8_ESt4lessIS2_ESaIS8_EE12_M_drop_nodeEPSt13_Rb_tree_nodeIS8_E
FNDA:0,_ZNSt8_Rb_treeIN5boost16exception_detail10type_info_ESt4pairIKS2_NS0_10shared_ptrINS1_15error_info_baseEEEESt10_Select1stIS8_ESt4lessIS2_ESaIS8_EE13_Rb_tree_implISC_Lb1EED2Ev
FNDA:0,_ZNSt8_Rb_treeIN5boost16exception_detail10type_info_ESt4pairIKS2_NS0_10shared_ptrINS1_15error_info_baseEEEESt10_Select1stIS8_ESt4lessIS2_ESaIS8_EE13_Rb_tree_implISC_Lb1EEC2Ev
FNDA:0,_ZNSt8_Rb_treeIN5boost16exception_detail10type_info_ESt4pairIKS2_NS0_10shared_ptrINS1_15error_info_baseEEEESt10_Select1stIS8_ESt4lessIS2_ESaIS8_EE11_M_leftmostEv
FNDA:0,_ZNSt8_Rb_treeIN5boost16exception_detail10type_info_ESt4pairIKS2_NS0_10shared_ptrINS1_15error_info_baseEEEESt10_Select1stIS8_ESt4lessIS2_ESaIS8_EE12_M_rightmostEv
FNDA:0,_ZNSt8_Rb_treeIN5boost16exception_detail10type_info_ESt4pairIKS2_NS0_10shared_ptrINS1_15error_info_baseEEEESt10_Select1stIS8_ESt4lessIS2_ESaIS8_EE8_M_beginEv
FNDA:0,_ZNKSt8_Rb_treeIN5boost16exception_detail10type_info_ESt4pairIKS2_NS0_10shared_ptrINS1_15error_info_baseEEEESt10_Select1stIS8_ESt4lessIS2_ESaIS8_EE8_M_beginEv
FNDA:0,_ZNSt8_Rb_treeIN5boost16exception_detail10type_info_ESt4pairIKS2_NS0_10shared_ptrINS1_15error_info_baseEEEESt10_Select1stIS8_ESt4lessIS2_ESaIS8_EE6_M_endEv
FNDA:0,_ZNKSt8_Rb_treeIN5boost16exception_detail10type_info_ESt4pairIKS2_NS0_10shared_ptrINS1_15error_info_baseEEEESt10_Select1stIS8_ESt4lessIS2_ESaIS8_EE6_M_endEv
FNDA:0,_ZNSt8_Rb_treeIN5boost16exception_detail10type_info_ESt4pairIKS2_NS0_10shared_ptrINS1_15error_info_baseEEEESt10_Select1stIS8_ESt4lessIS2_ESaIS8_EE8_S_valueEPKSt13_Rb_tree_nodeIS8_E
FNDA:0,_ZNSt8_Rb_treeIN5boost16exception_detail10type_info_ESt4pairIKS2_NS0_10shared_ptrINS1_15error_info_baseEEEESt10_Select1stIS8_ESt4lessIS2_ESaIS8_EE6_S_keyEPKSt13_Rb_tree_nodeIS8_E
FNDA:0,_ZNSt8_Rb_treeIN5boost16exception_detail10type_info_ESt4pairIKS2_NS0_10shared_ptrINS1_15error_info_baseEEEESt10_Select1stIS8_ESt4lessIS2_ESaIS8_EE7_S_leftEPSt18_Rb_tree_node_base
FNDA:0,_ZNSt8_Rb_treeIN5boost16exception_detail10type_info_ESt4pairIKS2_NS0_10shared_ptrINS1_15error_info_baseEEEESt10_Select1stIS8_ESt4lessIS2_ESaIS8_EE7_S_leftEPKSt18_Rb_tree_node_base
FNDA:0,_ZNSt8_Rb_treeIN5boost16exception_detail10type_info_ESt4pairIKS2_NS0_10shared_ptrINS1_15error_info_baseEEEESt10_Select1stIS8_ESt4lessIS2_ESaIS8_EE8_S_rightEPSt18_Rb_tree_node_base
FNDA:0,_ZNSt8_Rb_treeIN5boost16exception_detail10type_info_ESt4pairIKS2_NS0_10shared_ptrINS1_15error_info_baseEEEESt10_Select1stIS8_ESt4lessIS2_ESaIS8_EE8_S_rightEPKSt18_Rb_tree_node_base
FNDA:0,_ZNSt8_Rb_treeIN5boost16exception_detail10type_info_ESt4pairIKS2_NS0_10shared_ptrINS1_15error_info_baseEEEESt10_Select1stIS8_ESt4lessIS2_ESaIS8_EE8_S_valueEPKSt18_Rb_tree_node_base
FNDA:0,_ZNSt8_Rb_treeIN5boost16exception_detail10type_info_ESt4pairIKS2_NS0_10shared_ptrINS1_15error_info_baseEEEESt10_Select1stIS8_ESt4lessIS2_ESaIS8_EE6_S_keyEPKSt18_Rb_tree_node_base
FNDA:0,_ZNSt8_Rb_treeIN5boost16exception_detail10type_info_ESt4pairIKS2_NS0_10shared_ptrINS1_15error_info_baseEEEESt10_Select1stIS8_ESt4lessIS2_ESaIS8_EEC2Ev
FNDA:0,_ZNSt8_Rb_treeIN5boost16exception_detail10type_info_ESt4pairIKS2_NS0_10shared_ptrINS1_15error_info_baseEEEESt10_Select1stIS8_ESt4lessIS2_ESaIS8_EED2Ev
FNDA:0,_ZNKSt8_Rb_treeIN5boost16exception_detail10type_info_ESt4pairIKS2_NS0_10shared_ptrINS1_15error_info_baseEEEESt10_Select1stIS8_ESt4lessIS2_ESaIS8_EE8key_compEv
FNDA:0,_ZNSt8_Rb_treeIN5boost16exception_detail10type_info_ESt4pairIKS2_NS0_10shared_ptrINS1_15error_info_baseEEEESt10_Select1stIS8_ESt4lessIS2_ESaIS8_EE5beginEv
FNDA:0,_ZNKSt8_Rb_treeIN5boost16exception_detail10type_info_ESt4pairIKS2_NS0_10shared_ptrINS1_15error_info_baseEEEESt10_Select1stIS8_ESt4lessIS2_ESaIS8_EE5beginEv
FNDA:0,_ZNSt8_Rb_treeIN5boost16exception_detail10type_info_ESt4pairIKS2_NS0_10shared_ptrINS1_15error_info_baseEEEESt10_Select1stIS8_ESt4lessIS2_ESaIS8_EE3endEv
FNDA:0,_ZNKSt8_Rb_treeIN5boost16exception_detail10type_info_ESt4pairIKS2_NS0_10shared_ptrINS1_15error_info_baseEEEESt10_Select1stIS8_ESt4lessIS2_ESaIS8_EE3endEv
FNDA:0,_ZNKSt8_Rb_treeIN5boost16exception_detail10type_info_ESt4pairIKS2_NS0_10shared_ptrINS1_15error_info_baseEEEESt10_Select1stIS8_ESt4lessIS2_ESaIS8_EE4sizeEv
FNDA:0,_ZNSt8_Rb_treeIN5boost16exception_detail10type_info_ESt4pairIKS2_NS0_10shared_ptrINS1_15error_info_baseEEEESt10_Select1stIS8_ESt4lessIS2_ESaIS8_EE11lower_boundERS4_
FNDA:0,_ZNSt8_Rb_treeIN5boost16exception_detail10type_info_ESt4pairIKS2_NS0_10shared_ptrINS1_15error_info_baseEEEESt10_Select1stIS8_ESt4lessIS2_ESaIS8_EE10_M_insert_IS3_IS2_S7_ENSE_11_Alloc_nodeEEESt17_Rb_tree_iteratorIS8_EPSt18_Rb_tree_node_baseSL_OT_RT0_
FNDA:0,_ZNSt8_Rb_treeIN5boost16exception_detail10type_info_ESt4pairIKS2_NS0_10shared_ptrINS1_15error_info_baseEEEESt10_Select1stIS8_ESt4lessIS2_ESaIS8_EE8_M_eraseEPSt13_Rb_tree_nodeIS8_E
FNDA:0,_ZNSt8_Rb_treeIN5boost16exception_detail10type_info_ESt4pairIKS2_NS0_10shared_ptrINS1_15error_info_baseEEEESt10_Select1stIS8_ESt4lessIS2_ESaIS8_EE14_M_lower_boundEPSt13_Rb_tree_nodeIS8_EPSt18_Rb_tree_node_baseRS4_
FNDA:0,_ZNKSt8_Rb_treeIN5boost16exception_detail10type_info_ESt4pairIKS2_NS0_10shared_ptrINS1_15error_info_baseEEEESt10_Select1stIS8_ESt4lessIS2_ESaIS8_EE14_M_lower_boundEPKSt13_Rb_tree_nodeIS8_EPKSt18_Rb_tree_node_baseRS4_
FNDA:0,_ZNSt8_Rb_treeIN5boost16exception_detail10type_info_ESt4pairIKS2_NS0_10shared_ptrINS1_15error_info_baseEEEESt10_Select1stIS8_ESt4lessIS2_ESaIS8_EE24_M_get_insert_unique_posERS4_
FNDA:0,_ZNSt8_Rb_treeIN5boost16exception_detail10type_info_ESt4pairIKS2_NS0_10shared_ptrINS1_15error_info_baseEEEESt10_Select1stIS8_ESt4lessIS2_ESaIS8_EE16_M_insert_uniqueIS3_IS2_S7_EEES3_ISt17_Rb_tree_iteratorIS8_EbEOT_
FNDA:0,_ZNSt8_Rb_treeIN5boost16exception_detail10type_info_ESt4pairIKS2_NS0_10shared_ptrINS1_15error_info_baseEEEESt10_Select1stIS8_ESt4lessIS2_ESaIS8_EE29_M_get_insert_hint_unique_posESt23_Rb_tree_const_iteratorIS8_ERS4_
FNDA:0,_ZNSt8_Rb_treeIN5boost16exception_detail10type_info_ESt4pairIKS2_NS0_10shared_ptrINS1_15error_info_baseEEEESt10_Select1stIS8_ESt4lessIS2_ESaIS8_EE14_M_insert_nodeEPSt18_Rb_tree_node_baseSG_PSt13_Rb_tree_nodeIS8_E
FNDA:0,_ZNSt8_Rb_treeIN5boost16exception_detail10type_info_ESt4pairIKS2_NS0_10shared_ptrINS1_15error_info_baseEEEESt10_Select1stIS8_ESt4lessIS2_ESaIS8_EE22_M_emplace_hint_uniqueIJRKSt21piecewise_construct_tSt5tupleIJRS4_EESJ_IJEEEEESt17_Rb_tree_iteratorIS8_ESt23_Rb_tree_const_iteratorIS8_EDpOT_
FNDA:0,_ZNKSt8_Rb_treeIN5boost16exception_detail10type_info_ESt4pairIKS2_NS0_10shared_ptrINS1_15error_info_baseEEEESt10_Select1stIS8_ESt4lessIS2_ESaIS8_EE4findERS4_
FNF:63
FNH:0
DA:146,0
DA:150,0
DA:173,0
DA:174,0
DA:175,0
DA:176,0
DA:177,0
DA:206,0
DA:208,0
DA:209,0
DA:210,0
DA:211,0
DA:212,0
DA:234,0
DA:235,0
DA:238,0
DA:239,0
DA:273,0
DA:274,0
DA:277,0
DA:278,0
DA:285,0
DA:287,0
DA:288,0
DA:300,0
DA:302,0
DA:303,0
DA:315,0
DA:316,0
DA:345,0
DA:346,0
DA:348,0
DA:349,0
DA:352,0
DA:353,0
DA:360,0
DA:361,0
DA:364,0
DA:366,0
DA:367,0
DA:394,0
DA:395,0
DA:398,0
DA:399,0
DA:546,0
DA:547,0
DA:554,0
DA:556,0
DA:574,0
DA:575,0
DA:587,0
DA:588,0
DA:591,0
DA:592,0
DA:621,0
DA:625,0
DA:626,0
DA:630,0
DA:633,0
DA:634,0
DA:636,0
DA:640,0
DA:642,0
DA:643,0
DA:644,0
DA:648,0
DA:650,0
DA:652,0
DA:656,0
DA:658,0
DA:659,0
DA:660,0
DA:677,0
DA:688,0
DA:720,0
DA:721,0
DA:728,0
DA:729,0
DA:736,0
DA:737,0
DA:740,0
DA:743,0
DA:747,0
DA:748,0
DA:751,0
DA:752,0
DA:755,0
DA:756,0
DA:759,0
DA:760,0
DA:763,0
DA:764,0
DA:767,0
DA:768,0
DA:771,0
DA:772,0
DA:775,0
DA:776,0
DA:779,0
DA:780,0
DA:783,0
DA:784,0
DA:913,0
DA:948,0
DA:949,0
DA:956,0
DA:957,0
DA:960,0
DA:961,0
DA:964,0
DA:965,0
DA:968,0
DA:969,0
DA:972,0
DA:973,0
DA:996,0
DA:997,0
DA:1186,0
DA:1187,0
DA:1740,0
DA:1749,0
DA:1750,0
DA:1753,0
DA:1755,0
DA:1757,0
DA:1758,0
DA:1850,0
DA:1854,0
DA:1856,0
DA:1857,0
DA:1858,0
DA:1859,0
DA:1861,0
DA:1867,0
DA:1871,0
DA:1872,0
DA:1873,0
DA:1875,0
DA:1876,0
DA:1883,0
DA:1887,0
DA:1888,0
DA:1889,0
DA:1891,0
DA:1892,0
DA:2028,0
DA:2032,0
DA:2033,0
DA:2034,0
DA:2035,0
DA:2037,0
DA:2038,0
DA:2039,0
DA:2041,0
DA:2042,0
DA:2044,0
DA:2045,0
DA:2047,0
DA:2049,0
DA:2050,0
DA:2051,0
DA:2082,0
DA:2090,0
DA:2091,0
DA:2093,0
DA:2095,0
DA:2096,0
DA:2098,0
DA:2101,0
DA:2130,0
DA:2134,0
DA:2138,0
DA:2140,0
DA:2141,0
DA:2142,0
DA:2144,0
DA:2146,0
DA:2149,0
DA:2150,0
DA:2151,0
DA:2152,0
DA:2154,0
DA:2155,0
DA:2157,0
DA:2160,0
DA:2162,0
DA:2165,0
DA:2166,0
DA:2167,0
DA:2168,0
DA:2170,0
DA:2171,0
DA:2173,0
DA:2176,0
DA:2180,0
DA:2297,0
DA:2300,0
DA:2301,0
DA:2304,0
DA:2306,0
DA:2307,0
DA:2395,0
DA:2398,0
DA:2402,0
DA:2404,0
DA:2405,0
DA:2407,0
DA:2408,0
DA:2410,0
DA:2412,0
DA:2413,0
DA:2533,0
DA:2536,0
DA:2537,0
DA:2538,0
DA:2539,0
LF:216
LH:0
end_of_record
SF:/usr/include/c++/7/ext/aligned_buffer.h
FN:62,_ZN9__gnu_cxx16__aligned_membufISt4pairIKN5boost16exception_detail10type_info_ENS2_10shared_ptrINS3_15error_info_baseEEEEE7_M_addrEv
FN:66,_ZNK9__gnu_cxx16__aligned_membufISt4pairIKN5boost16exception_detail10type_info_ENS2_10shared_ptrINS3_15error_info_baseEEEEE7_M_addrEv
FN:70,_ZN9__gnu_cxx16__aligned_membufISt4pairIKN5boost16exception_detail10type_info_ENS2_10shared_ptrINS3_15error_info_baseEEEEE6_M_ptrEv
FN:74,_ZNK9__gnu_cxx16__aligned_membufISt4pairIKN5boost16exception_detail10type_info_ENS2_10shared_ptrINS3_15error_info_baseEEEEE6_M_ptrEv
FNDA:0,_ZN9__gnu_cxx16__aligned_membufISt4pairIKN5boost16exception_detail10type_info_ENS2_10shared_ptrINS3_15error_info_baseEEEEE7_M_addrEv
FNDA:0,_ZNK9__gnu_cxx16__aligned_membufISt4pairIKN5boost16exception_detail10type_info_ENS2_10shared_ptrINS3_15error_info_baseEEEEE7_M_addrEv
FNDA:0,_ZN9__gnu_cxx16__aligned_membufISt4pairIKN5boost16exception_detail10type_info_ENS2_10shared_ptrINS3_15error_info_baseEEEEE6_M_ptrEv
FNDA:0,_ZNK9__gnu_cxx16__aligned_membufISt4pairIKN5boost16exception_detail10type_info_ENS2_10shared_ptrINS3_15error_info_baseEEEEE6_M_ptrEv
FNF:4
FNH:0
DA:62,0
DA:63,0
DA:66,0
DA:67,0
DA:70,0
DA:71,0
DA:74,0
DA:75,0
LF:8
LH:0
end_of_record
SF:/usr/include/c++/7/ext/new_allocator.h
FN:79,_ZN9__gnu_cxx13new_allocatorISt13_Rb_tree_nodeISt4pairIKN5boost16exception_detail10type_info_ENS3_10shared_ptrINS4_15error_info_baseEEEEEEC2Ev
FN:86,_ZN9__gnu_cxx13new_allocatorISt13_Rb_tree_nodeISt4pairIKN5boost16exception_detail10type_info_ENS3_10shared_ptrINS4_15error_info_baseEEEEEED2Ev
FN:99,_ZN9__gnu_cxx13new_allocatorISt13_Rb_tree_nodeISt4pairIKN5boost16exception_detail10type_info_ENS3_10shared_ptrINS4_15error_info_baseEEEEEE8allocateEmPKv
FN:116,_ZN9__gnu_cxx13new_allocatorISt13_Rb_tree_nodeISt4pairIKN5boost16exception_detail10type_info_ENS3_10shared_ptrINS4_15error_info_baseEEEEEE10deallocateEPSB_m
FN:129,_ZNK9__gnu_cxx13new_allocatorISt13_Rb_tree_nodeISt4pairIKN5boost16exception_detail10type_info_ENS3_10shared_ptrINS4_15error_info_baseEEEEEE8max_sizeEv
FN:135,_ZN9__gnu_cxx13new_allocatorISt13_Rb_tree_nodeISt4pairIKN5boost16exception_detail10type_info_ENS3_10shared_ptrINS4_15error_info_baseEEEEEE9constructISA_JRKSt21piecewise_construct_tSt5tupleIJRS6_EESH_IJEEEEEvPT_DpOT0_
FN:135,_ZN9__gnu_cxx13new_allocatorISt13_Rb_tree_nodeISt4pairIKN5boost16exception_detail10type_info_ENS3_10shared_ptrINS4_15error_info_baseEEEEEE9constructISA_JS2_IS5_S9_EEEEvPT_DpOT0_
FN:140,_ZN9__gnu_cxx13new_allocatorISt13_Rb_tree_nodeISt4pairIKN5boost16exception_detail10type_info_ENS3_10shared_ptrINS4_15error_info_baseEEEEEE7destroyISA_EEvPT_
FNDA:0,_ZN9__gnu_cxx13new_allocatorISt13_Rb_tree_nodeISt4pairIKN5boost16exception_detail10type_info_ENS3_10shared_ptrINS4_15error_info_baseEEEEEEC2Ev
FNDA:0,_ZN9__gnu_cxx13new_allocatorISt13_Rb_tree_nodeISt4pairIKN5boost16exception_detail10type_info_ENS3_10shared_ptrINS4_15error_info_baseEEEEEED2Ev
FNDA:0,_ZN9__gnu_cxx13new_allocatorISt13_Rb_tree_nodeISt4pairIKN5boost16exception_detail10type_info_ENS3_10shared_ptrINS4_15error_info_baseEEEEEE8allocateEmPKv
FNDA:0,_ZN9__gnu_cxx13new_allocatorISt13_Rb_tree_nodeISt4pairIKN5boost16exception_detail10type_info_ENS3_10shared_ptrINS4_15error_info_baseEEEEEE10deallocateEPSB_m
FNDA:0,_ZNK9__gnu_cxx13new_allocatorISt13_Rb_tree_nodeISt4pairIKN5boost16exception_detail10type_info_ENS3_10shared_ptrINS4_15error_info_baseEEEEEE8max_sizeEv
FNDA:0,_ZN9__gnu_cxx13new_allocatorISt13_Rb_tree_nodeISt4pairIKN5boost16exception_detail10type_info_ENS3_10shared_ptrINS4_15error_info_baseEEEEEE9constructISA_JS2_IS5_S9_EEEEvPT_DpOT0_
FNDA:0,_ZN9__gnu_cxx13new_allocatorISt13_Rb_tree_nodeISt4pairIKN5boost16exception_detail10type_info_ENS3_10shared_ptrINS4_15error_info_baseEEEEEE9constructISA_JRKSt21piecewise_construct_tSt5tupleIJRS6_EESH_IJEEEEEvPT_DpOT0_
FNDA:0,_ZN9__gnu_cxx13new_allocatorISt13_Rb_tree_nodeISt4pairIKN5boost16exception_detail10type_info_ENS3_10shared_ptrINS4_15error_info_baseEEEEEE7destroyISA_EEvPT_
FNF:8
FNH:0
DA:79,0
DA:86,0
DA:99,0
DA:101,0
DA:102,0
DA:111,0
DA:116,0
DA:125,0
DA:126,0
DA:129,0
DA:130,0
DA:135,0
DA:136,0
DA:140,0
LF:14
LH:0
end_of_record
SF:/usr/include/c++/7/iostream
DA:74,1
LF:1
LH:1
end_of_record
SF:/usr/include/c++/7/new
FN:168,_ZnwmPv
FN:174,_ZdlPvS_
FNDA:0,_ZnwmPv
FNDA:0,_ZdlPvS_
FNF:2
FNH:0
DA:168,0
DA:169,0
DA:174,0
LF:3
LH:0
end_of_record
SF:/usr/include/c++/7/system_error
FN:125,_ZNKSt3_V214error_categoryeqERKS0_
FN:178,_ZNKSt10error_code5valueEv
FN:181,_ZNKSt10error_code8categoryEv
FN:229,_ZNSt15error_conditionC2EiRKNSt3_V214error_categoryE
FN:257,_ZNKSt15error_condition5valueEv
FN:260,_ZNKSt15error_condition8categoryEv
FN:311,_ZSteqRKSt15error_conditionS1_
FNDA:0,_ZNKSt3_V214error_categoryeqERKS0_
FNDA:0,_ZNKSt10error_code5valueEv
FNDA:0,_ZNKSt10error_code8categoryEv
FNDA:0,_ZNSt15error_conditionC2EiRKNSt3_V214error_categoryE
FNDA:0,_ZNKSt15error_condition5valueEv
FNDA:0,_ZNKSt15error_condition8categoryEv
FNDA:0,_ZSteqRKSt15error_conditionS1_
FNF:7
FNH:0
DA:125,0
DA:126,0
DA:178,0
DA:181,0
DA:229,0
DA:230,0
DA:257,0
DA:260,0
DA:311,0
DA:314,0
DA:315,0
LF:11
LH:0
end_of_record
SF:/usr/include/c++/7/tuple
FN:125,_ZNSt10_Head_baseILm0ERKN5boost16exception_detail10type_info_ELb0EEC2ES4_
FN:160,_ZNSt10_Head_baseILm0ERKN5boost16exception_detail10type_info_ELb0EE7_M_headERS5_
FN:351,_ZNSt11_Tuple_implILm0EJRKN5boost16exception_detail10type_info_EEE7_M_headERS5_
FN:360,_ZNSt11_Tuple_implILm0EJRKN5boost16exception_detail10type_info_EEEC2ES4_
FN:371,_ZNSt11_Tuple_implILm0EJRKN5boost16exception_detail10type_info_EEEC2EOS5_
FN:608,_ZNSt5tupleIJRKN5boost16exception_detail10type_info_EEEC2IvLb1EEES4_
FN:662,_ZNSt5tupleIJRKN5boost16exception_detail10type_info_EEEC2EOS5_
FN:1303,_ZSt12__get_helperILm0ERKN5boost16exception_detail10type_info_EJEERT0_RSt11_Tuple_implIXT_EJS5_DpT1_EE
FN:1314,_ZSt3getILm0EJRKN5boost16exception_detail10type_info_EEERNSt13tuple_elementIXT_ESt5tupleIJDpT0_EEE4typeERS9_
FN:1636,_ZNSt4pairIKN5boost16exception_detail10type_info_ENS0_10shared_ptrINS1_15error_info_baseEEEEC2IJRS3_EJEEESt21piecewise_construct_tSt5tupleIJDpT_EESB_IJDpT0_EE
FN:1648,_ZNSt4pairIKN5boost16exception_detail10type_info_ENS0_10shared_ptrINS1_15error_info_baseEEEEC2IJRS3_EJLm0EEJEJEEERSt5tupleIJDpT_EERSA_IJDpT1_EESt12_Index_tupleIJXspT0_EEESJ_IJXspT2_EEE
FNDA:0,_ZNSt10_Head_baseILm0ERKN5boost16exception_detail10type_info_ELb0EEC2ES4_
FNDA:0,_ZNSt10_Head_baseILm0ERKN5boost16exception_detail10type_info_ELb0EE7_M_headERS5_
FNDA:0,_ZNSt11_Tuple_implILm0EJRKN5boost16exception_detail10type_info_EEE7_M_headERS5_
FNDA:0,_ZNSt11_Tuple_implILm0EJRKN5boost16exception_detail10type_info_EEEC2ES4_
FNDA:0,_ZNSt11_Tuple_implILm0EJRKN5boost16exception_detail10type_info_EEEC2EOS5_
FNDA:0,_ZNSt5tupleIJRKN5boost16exception_detail10type_info_EEEC2IvLb1EEES4_
FNDA:0,_ZNSt5tupleIJRKN5boost16exception_detail10type_info_EEEC2EOS5_
FNDA:0,_ZSt12__get_helperILm0ERKN5boost16exception_detail10type_info_EJEERT0_RSt11_Tuple_implIXT_EJS5_DpT1_EE
FNDA:0,_ZSt3getILm0EJRKN5boost16exception_detail10type_info_EEERNSt13tuple_elementIXT_ESt5tupleIJDpT0_EEE4typeERS9_
FNDA:0,_ZNSt4pairIKN5boost16exception_detail10type_info_ENS0_10shared_ptrINS1_15error_info_baseEEEEC2IJRS3_EJEEESt21piecewise_construct_tSt5tupleIJDpT_EESB_IJDpT0_EE
FNDA:0,_ZNSt4pairIKN5boost16exception_detail10type_info_ENS0_10shared_ptrINS1_15error_info_baseEEEEC2IJRS3_EJLm0EEJEJEEERSt5tupleIJDpT_EERSA_IJDpT1_EESt12_Index_tupleIJXspT0_EEESJ_IJXspT2_EEE
FNF:11
FNH:0
DA:125,0
DA:126,0
DA:160,0
DA:351,0
DA:360,0
DA:361,0
DA:371,0
DA:373,0
DA:608,0
DA:609,0
DA:662,0
DA:1303,0
DA:1304,0
DA:1314,0
DA:1315,0
DA:1636,0
DA:1641,0
DA:1642,0
DA:1648,0
DA:1651,0
DA:1652,0
DA:1653,0
LF:22
LH:0
end_of_record
SF:/usr/include/c++/7/typeinfo
FN:99,_ZNKSt9type_info4nameEv
FN:115,_ZNKSt9type_info6beforeERKS_
FN:120,_ZNKSt9type_infoeqERKS_
FNDA:0,_ZNKSt9type_info4nameEv
FNDA:0,_ZNKSt9type_info6beforeERKS_
FNDA:0,_ZNKSt9type_infoeqERKS_
FNF:3
FNH:0
DA:99,0
DA:100,0
DA:115,0
DA:116,0
DA:117,0
DA:118,0
DA:120,0
DA:122,0
DA:123,0
DA:124,0
LF:10
LH:0
end_of_record
SF:/usr/local/include/boost/contract/check.hpp
FN:194,_ZN5boost8contract5checkC2IvEERKNS0_32specify_old_postcondition_exceptIT_EE
FN:328,_ZN5boost8contract5checkD2Ev
FNDA:112,_ZN5boost8contract5checkC2IvEERKNS0_32specify_old_postcondition_exceptIT_EE
FNDA:109,_ZN5boost8contract5checkD2Ev
FNF:2
FNH:2
DA:194,112
DA:198,112
DA:328,109
DA:330,109
LF:4
LH:4
end_of_record
SF:/usr/local/include/boost/contract/core/exception.hpp
FN:49,_ZN5boost8contract9exceptionC2Ev
FN:554,_ZN5boost8contract20precondition_failureENS0_4fromE
FN:624,_ZN5boost8contract21postcondition_failureENS0_4fromE
FN:697,_ZN5boost8contract14except_failureENS0_4fromE
FN:766,_ZN5boost8contract11old_failureENS0_4fromE
FNDA:3,_ZN5boost8contract9exceptionC2Ev
FNDA:3,_ZN5boost8contract20precondition_failureENS0_4fromE
FNDA:0,_ZN5boost8contract21postcondition_failureENS0_4fromE
FNDA:0,_ZN5boost8contract14except_failureENS0_4fromE
FNDA:0,_ZN5boost8contract11old_failureENS0_4fromE
FNF:5
FNH:2
DA:49,3
DA:554,3
DA:556,3
DA:560,0
DA:624,0
DA:626,0
DA:630,0
DA:697,0
DA:699,0
DA:703,0
DA:766,0
DA:768,0
DA:772,0
LF:13
LH:3
end_of_record
SF:/usr/local/include/boost/contract/core/specify.hpp
FN:375,_ZN5boost8contract32specify_old_postcondition_exceptIvED2Ev
FN:457,_ZN5boost8contract32specify_old_postcondition_exceptIvEC2EPNS0_6detail9cond_postINS3_4noneEEE
FN:513,_ZN5boost8contract45specify_precondition_old_postcondition_exceptIvED2Ev
FN:533,_ZN5boost8contract45specify_precondition_old_postcondition_exceptIvE12preconditionIZN35NumberTheoryCalculatorWithContracts3mcdEiiEUlvE_EENS0_32specify_old_postcondition_exceptIvEERKT_
FN:533,_ZN5boost8contract45specify_precondition_old_postcondition_exceptIvE12preconditionIZN35NumberTheoryCalculatorWithContracts3divEiiEUlvE_EENS0_32specify_old_postcondition_exceptIvEERKT_
FN:617,_ZN5boost8contract45specify_precondition_old_postcondition_exceptIvEC2EPNS0_6detail9cond_postINS3_4noneEEE
FN:626,_ZN5boost8contract8functionEv
FNDA:112,_ZN5boost8contract32specify_old_postcondition_exceptIvED2Ev
FNDA:112,_ZN5boost8contract32specify_old_postcondition_exceptIvEC2EPNS0_6detail9cond_postINS3_4noneEEE
FNDA:112,_ZN5boost8contract45specify_precondition_old_postcondition_exceptIvED2Ev
FNDA:20,_ZN5boost8contract45specify_precondition_old_postcondition_exceptIvE12preconditionIZN35NumberTheoryCalculatorWithContracts3mcdEiiEUlvE_EENS0_32specify_old_postcondition_exceptIvEERKT_
FNDA:92,_ZN5boost8contract45specify_precondition_old_postcondition_exceptIvE12preconditionIZN35NumberTheoryCalculatorWithContracts3divEiiEUlvE_EENS0_32specify_old_postcondition_exceptIvEERKT_
FNDA:112,_ZN5boost8contract45specify_precondition_old_postcondition_exceptIvEC2EPNS0_6detail9cond_postINS3_4noneEEE
FNDA:112,_ZN5boost8contract8functionEv
FNF:7
FNH:7
DA:375,112
DA:457,112
DA:513,112
DA:533,112
DA:534,112
DA:617,112
DA:626,112
LF:7
LH:7
end_of_record
SF:/usr/local/include/boost/contract/detail/auto_ptr.hpp
FN:21,_ZN5boost8contract6detail8auto_ptrINS1_9cond_postINS1_4noneEEEEC2EPS5_
FN:21,_ZN5boost8contract6detail8auto_ptrINS1_9cond_baseEEC2EPS3_
FN:23,_ZN5boost8contract6detail8auto_ptrINS1_9cond_postINS1_4noneEEEED2Ev
FN:23,_ZN5boost8contract6detail8auto_ptrINS1_9cond_baseEED2Ev
FN:25,_ZN5boost8contract6detail8auto_ptrINS1_9cond_postINS1_4noneEEEE7releaseEv
FN:41,_ZN5boost8contract6detail8auto_ptrINS1_9cond_baseEEptEv
FN:41,_ZN5boost8contract6detail8auto_ptrINS1_9cond_postINS1_4noneEEEEptEv
FN:44,_ZNK5boost8contract6detail8auto_ptrINS1_9cond_baseEEcvbEv
FN:44,_ZNK5boost8contract6detail8auto_ptrINS1_9cond_postINS1_4noneEEEEcvbEv
FNDA:224,_ZN5boost8contract6detail8auto_ptrINS1_9cond_postINS1_4noneEEEEC2EPS5_
FNDA:112,_ZN5boost8contract6detail8auto_ptrINS1_9cond_baseEEC2EPS3_
FNDA:224,_ZN5boost8contract6detail8auto_ptrINS1_9cond_postINS1_4noneEEEED2Ev
FNDA:112,_ZN5boost8contract6detail8auto_ptrINS1_9cond_baseEED2Ev
FNDA:224,_ZN5boost8contract6detail8auto_ptrINS1_9cond_postINS1_4noneEEEE7releaseEv
FNDA:112,_ZN5boost8contract6detail8auto_ptrINS1_9cond_postINS1_4noneEEEEptEv
FNDA:112,_ZN5boost8contract6detail8auto_ptrINS1_9cond_baseEEptEv
FNDA:112,_ZNK5boost8contract6detail8auto_ptrINS1_9cond_postINS1_4noneEEEEcvbEv
FNDA:112,_ZNK5boost8contract6detail8auto_ptrINS1_9cond_baseEEcvbEv
FNF:9
FNH:9
DA:21,336
DA:23,336
DA:25,224
DA:26,224
DA:27,224
DA:28,224
DA:41,224
DA:44,224
LF:8
LH:8
end_of_record
SF:/usr/local/include/boost/contract/detail/checking.hpp
FN:28,_ZN5boost8contract6detail8checkingC2Ev
FN:36,_ZN5boost8contract6detail8checkingD2Ev
FN:44,_ZN5boost8contract6detail8checking7alreadyEv
FNDA:224,_ZN5boost8contract6detail8checkingC2Ev
FNDA:224,_ZN5boost8contract6detail8checkingD2Ev
FNDA:224,_ZN5boost8contract6detail8checking7alreadyEv
FNF:3
FNH:3
DA:28,224
DA:30,224
DA:34,224
DA:36,224
DA:38,224
DA:42,224
DA:44,224
DA:46,224
LF:8
LH:8
end_of_record
SF:/usr/local/include/boost/contract/detail/condition/cond_base.hpp
FN:38,_ZN5boost8contract6detail9cond_baseC2ENS0_4fromE
FN:48,_ZN5boost8contract6detail9cond_baseD2Ev
FN:48,_ZN5boost8contract6detail9cond_baseD0Ev
FN:53,_ZN5boost8contract6detail9cond_base10initializeEv
FN:60,_ZN5boost8contract6detail9cond_base7set_preIZN35NumberTheoryCalculatorWithContracts3divEiiEUlvE_EEvRKT_
FN:60,_ZN5boost8contract6detail9cond_base7set_preIZN35NumberTheoryCalculatorWithContracts3mcdEiiEUlvE_EEvRKT_
FN:74,_ZN5boost8contract6detail9cond_base18assert_initializedEv
FN:87,_ZN5boost8contract6detail9cond_base4initEv
FN:91,_ZN5boost8contract6detail9cond_base9check_preEb
FN:105,_ZN5boost8contract6detail9cond_base8copy_oldEv
FN:113,_ZN5boost8contract6detail9cond_base12check_exceptEv
FN:121,_ZN5boost8contract6detail9cond_base4failEPFvNS0_4fromEE
FN:127,_ZNK5boost8contract6detail9cond_base6failedEv
FN:128,_ZN5boost8contract6detail9cond_base6failedEb
FNDA:112,_ZN5boost8contract6detail9cond_baseC2ENS0_4fromE
FNDA:0,_ZN5boost8contract6detail9cond_baseD0Ev
FNDA:112,_ZN5boost8contract6detail9cond_baseD2Ev
FNDA:112,_ZN5boost8contract6detail9cond_base10initializeEv
FNDA:20,_ZN5boost8contract6detail9cond_base7set_preIZN35NumberTheoryCalculatorWithContracts3mcdEiiEUlvE_EEvRKT_
FNDA:92,_ZN5boost8contract6detail9cond_base7set_preIZN35NumberTheoryCalculatorWithContracts3divEiiEUlvE_EEvRKT_
FNDA:112,_ZN5boost8contract6detail9cond_base18assert_initializedEv
FNDA:0,_ZN5boost8contract6detail9cond_base4initEv
FNDA:112,_ZN5boost8contract6detail9cond_base9check_preEb
FNDA:109,_ZN5boost8contract6detail9cond_base8copy_oldEv
FNDA:3,_ZN5boost8contract6detail9cond_base12check_exceptEv
FNDA:3,_ZN5boost8contract6detail9cond_base4failEPFvNS0_4fromEE
FNDA:333,_ZNK5boost8contract6detail9cond_base6failedEv
FNDA:3,_ZN5boost8contract6detail9cond_base6failedEb
FNF:14
FNH:12
DA:38,112
DA:43,112
DA:45,112
DA:48,224
DA:50,112
DA:51,112
DA:53,112
DA:54,112
DA:55,112
DA:56,109
DA:60,112
DA:74,112
DA:75,112
DA:83,112
DA:85,112
DA:87,0
DA:91,112
DA:92,112
DA:93,112
DA:94,3
DA:97,3
DA:98,3
DA:100,109
DA:105,109
DA:106,109
DA:107,109
DA:108,0
DA:113,3
DA:114,3
DA:115,0
DA:116,0
DA:121,3
DA:122,3
DA:123,3
DA:124,0
DA:127,333
DA:128,3
LF:37
LH:32
end_of_record
SF:/usr/local/include/boost/contract/detail/condition/cond_post.hpp
FN:69,_ZN5boost8contract6detail9cond_postINS1_4noneEED2Ev
FN:69,_ZN5boost8contract6detail9cond_postINS1_4noneEED0Ev
FN:71,_ZN5boost8contract6detail9cond_postINS1_4noneEEC2ENS0_4fromE
FN:74,_ZN5boost8contract6detail9cond_postINS1_4noneEE10check_postERKS3_
FNDA:0,_ZN5boost8contract6detail9cond_postINS1_4noneEED0Ev
FNDA:112,_ZN5boost8contract6detail9cond_postINS1_4noneEED2Ev
FNDA:112,_ZN5boost8contract6detail9cond_postINS1_4noneEEC2ENS0_4fromE
FNDA:109,_ZN5boost8contract6detail9cond_postINS1_4noneEE10check_postERKS3_
FNF:4
FNH:3
DA:69,112
DA:71,112
DA:74,109
LF:3
LH:3
end_of_record
SF:/usr/local/include/boost/contract/detail/inlined/core/exception.hpp
FN:28,_ZN5boost8contract9exceptionD2Ev
FN:28,_ZN5boost8contract9exceptionD0Ev
FN:43,_ZN5boost8contract23bad_virtual_result_castD2Ev
FN:43,_ZN5boost8contract23bad_virtual_result_castD0Ev
FN:46,_ZNK5boost8contract23bad_virtual_result_cast4whatEv
FN:51,_ZN5boost8contract17assertion_failureC2EPKcmS3_
FN:62,_ZN5boost8contract17assertion_failureD0Ev
FN:62,_ZN5boost8contract17assertion_failureD2Ev
FN:65,_ZNK5boost8contract17assertion_failure4whatEv
FN:79,_ZN5boost8contract17assertion_failure4initEv
FN:103,_ZN5boost8contract10exception_15default_handlerILNS1_11failure_keyE4EEEvv
FN:103,_ZN5boost8contract10exception_15default_handlerILNS1_11failure_keyE1EEEvv
FN:103,_ZN5boost8contract10exception_15default_handlerILNS1_11failure_keyE2EEEvv
FN:103,_ZN5boost8contract10exception_15default_handlerILNS1_11failure_keyE3EEEvv
FN:127,_ZN5boost8contract10exception_20default_from_handlerILNS1_11failure_keyE4EEEvNS0_4fromE
FN:127,_ZN5boost8contract10exception_20default_from_handlerILNS1_11failure_keyE3EEEvNS0_4fromE
FN:127,_ZN5boost8contract10exception_20default_from_handlerILNS1_11failure_keyE1EEEvNS0_4fromE
FN:127,_ZN5boost8contract10exception_20default_from_handlerILNS1_11failure_keyE2EEEvNS0_4fromE
FN:219,_ZN5boost8contract10exception_20pre_failure_unlockedENS0_4fromE
FN:224,_ZN5boost8contract10exception_18pre_failure_lockedENS0_4fromE
FN:269,_ZN5boost8contract10exception_21post_failure_unlockedENS0_4fromE
FN:274,_ZN5boost8contract10exception_19post_failure_lockedENS0_4fromE
FN:320,_ZN5boost8contract10exception_23except_failure_unlockedENS0_4fromE
FN:325,_ZN5boost8contract10exception_21except_failure_lockedENS0_4fromE
FN:370,_ZN5boost8contract10exception_20old_failure_unlockedENS0_4fromE
FN:375,_ZN5boost8contract10exception_18old_failure_lockedENS0_4fromE
FNDA:0,_ZN5boost8contract9exceptionD0Ev
FNDA:0,_ZN5boost8contract9exceptionD2Ev
FNDA:0,_ZN5boost8contract23bad_virtual_result_castD0Ev
FNDA:0,_ZN5boost8contract23bad_virtual_result_castD2Ev
FNDA:0,_ZNK5boost8contract23bad_virtual_result_cast4whatEv
FNDA:3,_ZN5boost8contract17assertion_failureC2EPKcmS3_
FNDA:0,_ZN5boost8contract17assertion_failureD0Ev
FNDA:0,_ZN5boost8contract17assertion_failureD2Ev
FNDA:0,_ZNK5boost8contract17assertion_failure4whatEv
FNDA:3,_ZN5boost8contract17assertion_failure4initEv
FNDA:0,_ZN5boost8contract10exception_15default_handlerILNS1_11failure_keyE4EEEvv
FNDA:0,_ZN5boost8contract10exception_15default_handlerILNS1_11failure_keyE3EEEvv
FNDA:0,_ZN5boost8contract10exception_15default_handlerILNS1_11failure_keyE2EEEvv
FNDA:0,_ZN5boost8contract10exception_15default_handlerILNS1_11failure_keyE1EEEvv
FNDA:0,_ZN5boost8contract10exception_20default_from_handlerILNS1_11failure_keyE4EEEvNS0_4fromE
FNDA:0,_ZN5boost8contract10exception_20default_from_handlerILNS1_11failure_keyE3EEEvNS0_4fromE
FNDA:0,_ZN5boost8contract10exception_20default_from_handlerILNS1_11failure_keyE2EEEvNS0_4fromE
FNDA:0,_ZN5boost8contract10exception_20default_from_handlerILNS1_11failure_keyE1EEEvNS0_4fromE
FNDA:3,_ZN5boost8contract10exception_20pre_failure_unlockedENS0_4fromE
FNDA:3,_ZN5boost8contract10exception_18pre_failure_lockedENS0_4fromE
FNDA:0,_ZN5boost8contract10exception_21post_failure_unlockedENS0_4fromE
FNDA:0,_ZN5boost8contract10exception_19post_failure_lockedENS0_4fromE
FNDA:0,_ZN5boost8contract10exception_23except_failure_unlockedENS0_4fromE
FNDA:0,_ZN5boost8contract10exception_21except_failure_lockedENS0_4fromE
FNDA:0,_ZN5boost8contract10exception_20old_failure_unlockedENS0_4fromE
FNDA:0,_ZN5boost8contract10exception_18old_failure_lockedENS0_4fromE
FNF:26
FNH:4
DA:28,0
DA:43,0
DA:46,0
DA:47,0
DA:51,3
DA:52,3
DA:53,3
DA:54,3
DA:62,0
DA:65,0
DA:66,0
DA:79,3
DA:80,6
DA:81,3
DA:82,3
DA:83,3
DA:84,3
DA:85,3
DA:86,3
DA:88,3
DA:89,3
DA:103,0
DA:104,0
DA:107,0
DA:108,0
DA:109,0
DA:110,0
DA:115,0
DA:116,0
DA:118,0
DA:119,0
DA:120,0
DA:121,0
DA:123,0
DA:127,0
DA:219,3
DA:220,3
DA:221,0
DA:224,3
DA:225,6
DA:226,3
DA:227,0
DA:269,0
DA:270,0
DA:271,0
DA:274,0
DA:275,0
DA:276,0
DA:277,0
DA:320,0
DA:321,0
DA:322,0
DA:325,0
DA:326,0
DA:327,0
DA:328,0
DA:370,0
DA:371,0
DA:372,0
DA:375,0
DA:376,0
DA:377,0
DA:378,0
LF:63
LH:19
end_of_record
SF:/usr/local/include/boost/contract/detail/inlined/detail/checking.hpp
FN:20,_ZN5boost8contract6detail8checking13init_unlockedEv
FN:23,_ZN5boost8contract6detail8checking11init_lockedEv
FN:29,_ZN5boost8contract6detail8checking13done_unlockedEv
FN:32,_ZN5boost8contract6detail8checking11done_lockedEv
FN:38,_ZN5boost8contract6detail8checking16already_unlockedEv
FN:41,_ZN5boost8contract6detail8checking14already_lockedEv
FNDA:224,_ZN5boost8contract6detail8checking13init_unlockedEv
FNDA:224,_ZN5boost8contract6detail8checking11init_lockedEv
FNDA:224,_ZN5boost8contract6detail8checking13done_unlockedEv
FNDA:224,_ZN5boost8contract6detail8checking11done_lockedEv
FNDA:224,_ZN5boost8contract6detail8checking16already_unlockedEv
FNDA:224,_ZN5boost8contract6detail8checking14already_lockedEv
FNF:6
FNH:6
DA:20,224
DA:23,224
DA:24,448
DA:25,224
DA:26,224
DA:29,224
DA:32,224
DA:33,448
DA:34,224
DA:35,224
DA:38,224
DA:41,224
DA:42,448
DA:43,448
LF:14
LH:14
end_of_record
SF:/usr/local/include/boost/contract/detail/operation/function.hpp
FN:30,_ZN5boost8contract6detail8functionC2Ev
FN:36,_ZN5boost8contract6detail8function4initEv
FN:59,_ZN5boost8contract6detail8functionD2Ev
FN:59,_ZN5boost8contract6detail8functionD0Ev
FNDA:112,_ZN5boost8contract6detail8functionC2Ev
FNDA:112,_ZN5boost8contract6detail8function4initEv
FNDA:112,_ZN5boost8contract6detail8functionD0Ev
FNDA:112,_ZN5boost8contract6detail8functionD2Ev
FNF:4
FNH:4
DA:30,112
DA:31,112
DA:36,112
DA:38,112
DA:45,224
DA:47,112
DA:51,109
DA:59,336
DA:60,112
DA:62,112
DA:63,224
DA:66,112
DA:68,3
DA:72,109
DA:75,224
LF:15
LH:15
end_of_record
SF:/usr/local/include/boost/contract/detail/static_local_var.hpp
FN:20,_ZN5boost8contract6detail16static_local_varINS0_10exception_21pre_failure_mutex_tagENS_5mutexEE3refEv
FN:20,_ZN5boost8contract6detail16static_local_varINS0_10exception_24except_failure_mutex_tagENS_5mutexEE3refEv
FN:20,_ZN5boost8contract6detail16static_local_varINS0_10exception_22post_failure_mutex_tagENS_5mutexEE3refEv
FN:20,_ZN5boost8contract6detail16static_local_varINS1_8checking9mutex_tagENS_5mutexEE3refEv
FN:20,_ZN5boost8contract6detail16static_local_varINS0_10exception_21old_failure_mutex_tagENS_5mutexEE3refEv
FN:32,_ZN5boost8contract6detail21static_local_var_initINS0_10exception_24post_failure_handler_tagENS_8functionIFvNS0_4fromEEEEPS7_XadL_ZNS3_20default_from_handlerILNS3_11failure_keyE2EEEvS6_EEE3refEv
FN:32,_ZN5boost8contract6detail21static_local_var_initINS1_8checking12checking_tagEbbLb0EE3refEv
FN:32,_ZN5boost8contract6detail21static_local_var_initINS0_10exception_26except_failure_handler_tagENS_8functionIFvNS0_4fromEEEEPS7_XadL_ZNS3_20default_from_handlerILNS3_11failure_keyE3EEEvS6_EEE3refEv
FN:32,_ZN5boost8contract6detail21static_local_var_initINS0_10exception_23old_failure_handler_tagENS_8functionIFvNS0_4fromEEEEPS7_XadL_ZNS3_20default_from_handlerILNS3_11failure_keyE4EEEvS6_EEE3refEv
FN:32,_ZN5boost8contract6detail21static_local_var_initINS0_10exception_23pre_failure_handler_tagENS_8functionIFvNS0_4fromEEEEPS7_XadL_ZNS3_20default_from_handlerILNS3_11failure_keyE1EEEvS6_EEE3refEv
FNDA:672,_ZN5boost8contract6detail16static_local_varINS1_8checking9mutex_tagENS_5mutexEE3refEv
FNDA:0,_ZN5boost8contract6detail16static_local_varINS0_10exception_21old_failure_mutex_tagENS_5mutexEE3refEv
FNDA:0,_ZN5boost8contract6detail16static_local_varINS0_10exception_24except_failure_mutex_tagENS_5mutexEE3refEv
FNDA:0,_ZN5boost8contract6detail16static_local_varINS0_10exception_22post_failure_mutex_tagENS_5mutexEE3refEv
FNDA:0,_ZN5boost8contract6detail16static_local_varINS0_10exception_21pre_failure_mutex_tagENS_5mutexEE3refEv
FNDA:672,_ZN5boost8contract6detail21static_local_var_initINS1_8checking12checking_tagEbbLb0EE3refEv
FNDA:0,_ZN5boost8contract6detail21static_local_var_initINS0_10exception_23old_failure_handler_tagENS_8functionIFvNS0_4fromEEEEPS7_XadL_ZNS3_20default_from_handlerILNS3_11failure_keyE4EEEvS6_EEE3refEv
FNDA:0,_ZN5boost8contract6detail21static_local_var_initINS0_10exception_26except_failure_handler_tagENS_8functionIFvNS0_4fromEEEEPS7_XadL_ZNS3_20default_from_handlerILNS3_11failure_keyE3EEEvS6_EEE3refEv
FNDA:0,_ZN5boost8contract6detail21static_local_var_initINS0_10exception_24post_failure_handler_tagENS_8functionIFvNS0_4fromEEEEPS7_XadL_ZNS3_20default_from_handlerILNS3_11failure_keyE2EEEvS6_EEE3refEv
FNDA:0,_ZN5boost8contract6detail21static_local_var_initINS0_10exception_23pre_failure_handler_tagENS_8functionIFvNS0_4fromEEEEPS7_XadL_ZNS3_20default_from_handlerILNS3_11failure_keyE1EEEvS6_EEE3refEv
FNF:10
FNH:2
DA:20,672
DA:21,672
DA:22,672
DA:32,672
DA:33,0
DA:34,672
LF:6
LH:5
end_of_record
SF:/usr/local/include/boost/contract/function.hpp
DA:80,112
LF:1
LH:1
end_of_record
SF:/usr/local/include/boost/core/addressof.hpp
FN:38,_ZN5boost9addressofIZN35NumberTheoryCalculatorWithContracts3divEiiEUlvE_EEPT_RS3_
FN:38,_ZN5boost9addressofIZN35NumberTheoryCalculatorWithContracts3mcdEiiEUlvE_EEPT_RS3_
FNDA:20,_ZN5boost9addressofIZN35NumberTheoryCalculatorWithContracts3mcdEiiEUlvE_EEPT_RS3_
FNDA:92,_ZN5boost9addressofIZN35NumberTheoryCalculatorWithContracts3divEiiEUlvE_EEPT_RS3_
FNF:2
FNH:2
DA:38,112
DA:40,112
LF:2
LH:2
end_of_record
SF:/usr/local/include/boost/core/checked_delete.hpp
FN:29,_ZN5boost14checked_deleteINS_16exception_detail15error_info_baseEEEvPT_
FNDA:0,_ZN5boost14checked_deleteINS_16exception_detail15error_info_baseEEEvPT_
FNF:1
FNH:0
DA:29,0
DA:34,0
DA:35,0
LF:3
LH:0
end_of_record
SF:/usr/local/include/boost/core/demangle.hpp
FN:59,_ZN5boost4core21scoped_demangled_nameC2EPKc
FN:64,_ZN5boost4core21scoped_demangled_nameD2Ev
FN:69,_ZNK5boost4core21scoped_demangled_name3getEv
FN:81,_ZN5boost4core14demangle_allocEPKc
FN:88,_ZN5boost4core13demangle_freeEPKc
FN:93,_ZN5boost4core8demangleB5cxx11EPKc
FNDA:0,_ZN5boost4core21scoped_demangled_nameC2EPKc
FNDA:0,_ZN5boost4core21scoped_demangled_nameD2Ev
FNDA:0,_ZNK5boost4core21scoped_demangled_name3getEv
FNDA:0,_ZN5boost4core14demangle_allocEPKc
FNDA:0,_ZN5boost4core13demangle_freeEPKc
FNDA:0,_ZN5boost4core8demangleB5cxx11EPKc
FNF:6
FNH:0
DA:59,0
DA:60,0
DA:62,0
DA:64,0
DA:65,0
DA:66,0
DA:67,0
DA:69,0
DA:71,0
DA:81,0
DA:83,0
DA:84,0
DA:85,0
DA:88,0
DA:90,0
DA:91,0
DA:93,0
DA:95,0
DA:96,0
DA:97,0
DA:98,0
DA:99,0
LF:22
LH:0
end_of_record
SF:/usr/local/include/boost/exception/current_exception_cast.hpp
FN:21,_ZN5boost22current_exception_castIKSt9exceptionEEPT_v
FN:21,_ZN5boost22current_exception_castIKNS_9exceptionEEEPT_v
FNDA:0,_ZN5boost22current_exception_castIKSt9exceptionEEPT_v
FNDA:0,_ZN5boost22current_exception_castIKNS_9exceptionEEEPT_v
FNF:2
FNH:0
DA:21,0
DA:25,0
DA:27,0
DA:28,0
DA:30,0
DA:32,0
DA:35,0
LF:7
LH:0
end_of_record
SF:/usr/local/include/boost/exception/detail/type_info.hpp
FN:58,_ZN5boost16exception_detail10type_info_C2ERKSt9type_info
FN:65,_ZN5boost16exception_detailltERKNS0_10type_info_ES3_
FNDA:0,_ZN5boost16exception_detail10type_info_C2ERKSt9type_info
FNDA:0,_ZN5boost16exception_detailltERKNS0_10type_info_ES3_
FNF:2
FNH:0
DA:58,0
DA:59,0
DA:61,0
DA:65,0
DA:67,0
LF:5
LH:0
end_of_record
SF:/usr/local/include/boost/exception/diagnostic_information.hpp
FN:42,_ZN5boost40current_exception_diagnostic_informationB5cxx11Eb
FN:90,_ZN5boost16exception_detail26get_diagnostic_informationERKNS_9exceptionEPKc
FN:113,_ZN5boost16exception_detail27diagnostic_information_implB5cxx11EPKNS_9exceptionEPKSt9exceptionbb
FNDA:0,_ZN5boost40current_exception_diagnostic_informationB5cxx11Eb
FNDA:0,_ZN5boost16exception_detail26get_diagnostic_informationERKNS_9exceptionEPKc
FNDA:0,_ZN5boost16exception_detail27diagnostic_information_implB5cxx11EPKNS_9exceptionEPKSt9exceptionbb
FNF:3
FNH:0
DA:42,0
DA:44,0
DA:45,0
DA:46,0
DA:47,0
DA:49,0
DA:90,0
DA:96,0
DA:97,0
DA:98,0
DA:99,0
DA:100,0
DA:101,0
DA:104,0
DA:106,0
DA:113,0
DA:115,0
DA:116,0
DA:118,0
DA:119,0
DA:120,0
DA:121,0
DA:123,0
DA:124,0
DA:126,0
DA:127,0
DA:128,0
DA:130,0
DA:131,0
DA:133,0
DA:134,0
DA:135,0
DA:136,0
DA:137,0
DA:140,0
DA:142,0
DA:143,0
DA:144,0
DA:146,0
DA:147,0
DA:148,0
DA:150,0
DA:151,0
DA:155,0
DA:156,0
DA:157,0
DA:159,0
DA:160,0
DA:161,0
DA:162,0
DA:163,0
DA:164,0
DA:165,0
LF:53
LH:0
end_of_record
SF:/usr/local/include/boost/exception/exception.hpp
FN:35,_ZN5boost16exception_detail12refcount_ptrINS0_20error_info_containerEEC2Ev
FN:40,_ZN5boost16exception_detail12refcount_ptrINS0_20error_info_containerEED2Ev
FN:45,_ZN5boost16exception_detail12refcount_ptrINS0_20error_info_containerEEC2ERKS3_
FN:52,_ZN5boost16exception_detail12refcount_ptrINS0_20error_info_containerEEaSERKS3_
FN:59,_ZN5boost16exception_detail12refcount_ptrINS0_20error_info_containerEE5adoptEPS2_
FN:67,_ZNK5boost16exception_detail12refcount_ptrINS0_20error_info_containerEE3getEv
FN:77,_ZN5boost16exception_detail12refcount_ptrINS0_20error_info_containerEE7add_refEv
FN:84,_ZN5boost16exception_detail12refcount_ptrINS0_20error_info_containerEE7releaseEv
FN:162,_ZN5boost16exception_detail20error_info_containerC2Ev
FN:173,_ZN5boost16exception_detail20error_info_containerD2Ev
FN:225,_ZN5boost9exceptionC2ERKS0_
FN:235,_ZN5boost9exceptionC2Ev
FN:303,_ZN5boost9exceptionD2Ev
FN:303,_ZN5boost9exceptionD0Ev
FN:348,_ZN5boost16exception_detail19error_info_injectorINS_10lock_errorEEC2ERKS3_
FN:348,_ZN5boost16exception_detail19error_info_injectorINS_21thread_resource_errorEEC2ERKS3_
FN:348,_ZN5boost16exception_detail19error_info_injectorINS_17bad_function_callEEC2ERKS3_
FN:353,_ZN5boost16exception_detail19error_info_injectorINS_10lock_errorEEC2ERKS2_
FN:353,_ZN5boost16exception_detail19error_info_injectorINS_17bad_function_callEEC2ERKS2_
FN:353,_ZN5boost16exception_detail19error_info_injectorINS_21thread_resource_errorEEC2ERKS2_
FN:358,_ZN5boost16exception_detail19error_info_injectorINS_21thread_resource_errorEED2Ev
FN:358,_ZN5boost16exception_detail19error_info_injectorINS_10lock_errorEED0Ev
FN:358,_ZN5boost16exception_detail19error_info_injectorINS_17bad_function_callEED2Ev
FN:358,_ZN5boost16exception_detail19error_info_injectorINS_10lock_errorEED2Ev
FN:358,_ZN5boost16exception_detail19error_info_injectorINS_17bad_function_callEED0Ev
FN:358,_ZN5boost16exception_detail19error_info_injectorINS_21thread_resource_errorEED0Ev
FN:403,_ZN5boost17enable_error_infoINS_21thread_resource_errorEEENS_16exception_detail29enable_error_info_return_typeIT_E4typeERKS4_
FN:403,_ZN5boost17enable_error_infoINS_10lock_errorEEENS_16exception_detail29enable_error_info_return_typeIT_E4typeERKS4_
FN:403,_ZN5boost17enable_error_infoINS_17bad_function_callEEENS_16exception_detail29enable_error_info_return_typeIT_E4typeERKS4_
FN:420,_ZN5boost16exception_detail10clone_baseC2ERKS1_
FN:420,_ZN5boost16exception_detail10clone_baseC2Ev
FN:428,_ZN5boost16exception_detail10clone_baseD0Ev
FN:428,_ZN5boost16exception_detail10clone_baseD2Ev
FN:440,_ZN5boost16exception_detail20copy_boost_exceptionEPNS_9exceptionEPKS1_
FN:464,_ZN5boost16exception_detail10clone_implINS0_19error_info_injectorINS_10lock_errorEEEEC1ERKS5_
FN:464,_ZN5boost16exception_detail10clone_implINS0_19error_info_injectorINS_17bad_function_callEEEEC1ERKS5_
FN:464,_ZN5boost16exception_detail10clone_implINS0_19error_info_injectorINS_21thread_resource_errorEEEEC1ERKS5_
FN:469,_ZN5boost16exception_detail10clone_implINS0_19error_info_injectorINS_17bad_function_callEEEEC1ERKS5_NS5_9clone_tagE
FN:469,_ZN5boost16exception_detail10clone_implINS0_19error_info_injectorINS_21thread_resource_errorEEEEC1ERKS5_NS5_9clone_tagE
FN:469,_ZN5boost16exception_detail10clone_implINS0_19error_info_injectorINS_10lock_errorEEEEC1ERKS5_NS5_9clone_tagE
FN:478,_ZN5boost16exception_detail10clone_implINS0_19error_info_injectorINS_21thread_resource_errorEEEEC1ERKS4_
FN:478,_ZN5boost16exception_detail10clone_implINS0_19error_info_injectorINS_17bad_function_callEEEEC1ERKS4_
FN:478,_ZN5boost16exception_detail10clone_implINS0_19error_info_injectorINS_10lock_errorEEEEC1ERKS4_
FN:484,_ZN5boost16exception_detail10clone_implINS0_19error_info_injectorINS_10lock_errorEEEED0Ev
FN:484,_ZN5boost16exception_detail10clone_implINS0_19error_info_injectorINS_21thread_resource_errorEEEED0Ev
FN:484,_ZN5boost16exception_detail10clone_implINS0_19error_info_injectorINS_17bad_function_callEEEED0Ev
FN:484,_ZN5boost16exception_detail10clone_implINS0_19error_info_injectorINS_17bad_function_callEEEED1Ev
FN:484,_ZN5boost16exception_detail10clone_implINS0_19error_info_injectorINS_10lock_errorEEEED1Ev
FN:484,_ZN5boost16exception_detail10clone_implINS0_19error_info_injectorINS_21thread_resource_errorEEEED1Ev
FN:491,_ZNK5boost16exception_detail10clone_implINS0_19error_info_injectorINS_21thread_resource_errorEEEE5cloneEv
FN:491,_ZNK5boost16exception_detail10clone_implINS0_19error_info_injectorINS_17bad_function_callEEEE5cloneEv
FN:491,_ZNK5boost16exception_detail10clone_implINS0_19error_info_injectorINS_10lock_errorEEEE5cloneEv
FN:497,_ZNK5boost16exception_detail10clone_implINS0_19error_info_injectorINS_10lock_errorEEEE7rethrowEv
FN:497,_ZNK5boost16exception_detail10clone_implINS0_19error_info_injectorINS_21thread_resource_errorEEEE7rethrowEv
FN:497,_ZNK5boost16exception_detail10clone_implINS0_19error_info_injectorINS_17bad_function_callEEEE7rethrowEv
FN:512,_ZN5boost24enable_current_exceptionINS_16exception_detail19error_info_injectorINS_10lock_errorEEEEENS1_10clone_implIT_EERKS6_
FN:512,_ZN5boost24enable_current_exceptionINS_16exception_detail19error_info_injectorINS_21thread_resource_errorEEEEENS1_10clone_implIT_EERKS6_
FN:512,_ZN5boost24enable_current_exceptionINS_16exception_detail19error_info_injectorINS_17bad_function_callEEEEENS1_10clone_implIT_EERKS6_
FNDA:0,_ZN5boost16exception_detail12refcount_ptrINS0_20error_info_containerEEC2Ev
FNDA:0,_ZN5boost16exception_detail12refcount_ptrINS0_20error_info_containerEED2Ev
FNDA:0,_ZN5boost16exception_detail12refcount_ptrINS0_20error_info_containerEEC2ERKS3_
FNDA:0,_ZN5boost16exception_detail12refcount_ptrINS0_20error_info_containerEEaSERKS3_
FNDA:0,_ZN5boost16exception_detail12refcount_ptrINS0_20error_info_containerEE5adoptEPS2_
FNDA:0,_ZNK5boost16exception_detail12refcount_ptrINS0_20error_info_containerEE3getEv
FNDA:0,_ZN5boost16exception_detail12refcount_ptrINS0_20error_info_containerEE7add_refEv
FNDA:0,_ZN5boost16exception_detail12refcount_ptrINS0_20error_info_containerEE7releaseEv
FNDA:0,_ZN5boost16exception_detail20error_info_containerC2Ev
FNDA:0,_ZN5boost16exception_detail20error_info_containerD2Ev
FNDA:0,_ZN5boost9exceptionC2ERKS0_
FNDA:0,_ZN5boost9exceptionC2Ev
FNDA:0,_ZN5boost9exceptionD0Ev
FNDA:0,_ZN5boost9exceptionD2Ev
FNDA:0,_ZN5boost16exception_detail19error_info_injectorINS_17bad_function_callEEC2ERKS3_
FNDA:0,_ZN5boost16exception_detail19error_info_injectorINS_10lock_errorEEC2ERKS3_
FNDA:0,_ZN5boost16exception_detail19error_info_injectorINS_21thread_resource_errorEEC2ERKS3_
FNDA:0,_ZN5boost16exception_detail19error_info_injectorINS_17bad_function_callEEC2ERKS2_
FNDA:0,_ZN5boost16exception_detail19error_info_injectorINS_10lock_errorEEC2ERKS2_
FNDA:0,_ZN5boost16exception_detail19error_info_injectorINS_21thread_resource_errorEEC2ERKS2_
FNDA:0,_ZN5boost16exception_detail19error_info_injectorINS_17bad_function_callEED0Ev
FNDA:0,_ZN5boost16exception_detail19error_info_injectorINS_17bad_function_callEED2Ev
FNDA:0,_ZN5boost16exception_detail19error_info_injectorINS_10lock_errorEED0Ev
FNDA:0,_ZN5boost16exception_detail19error_info_injectorINS_10lock_errorEED2Ev
FNDA:0,_ZN5boost16exception_detail19error_info_injectorINS_21thread_resource_errorEED0Ev
FNDA:0,_ZN5boost16exception_detail19error_info_injectorINS_21thread_resource_errorEED2Ev
FNDA:0,_ZN5boost17enable_error_infoINS_17bad_function_callEEENS_16exception_detail29enable_error_info_return_typeIT_E4typeERKS4_
FNDA:0,_ZN5boost17enable_error_infoINS_10lock_errorEEENS_16exception_detail29enable_error_info_return_typeIT_E4typeERKS4_
FNDA:0,_ZN5boost17enable_error_infoINS_21thread_resource_errorEEENS_16exception_detail29enable_error_info_return_typeIT_E4typeERKS4_
FNDA:0,_ZN5boost16exception_detail10clone_baseC2Ev
FNDA:0,_ZN5boost16exception_detail10clone_baseC2ERKS1_
FNDA:0,_ZN5boost16exception_detail10clone_baseD0Ev
FNDA:0,_ZN5boost16exception_detail10clone_baseD2Ev
FNDA:0,_ZN5boost16exception_detail20copy_boost_exceptionEPNS_9exceptionEPKS1_
FNDA:0,_ZN5boost16exception_detail10clone_implINS0_19error_info_injectorINS_17bad_function_callEEEEC1ERKS5_
FNDA:0,_ZN5boost16exception_detail10clone_implINS0_19error_info_injectorINS_10lock_errorEEEEC1ERKS5_
FNDA:0,_ZN5boost16exception_detail10clone_implINS0_19error_info_injectorINS_21thread_resource_errorEEEEC1ERKS5_
FNDA:0,_ZN5boost16exception_detail10clone_implINS0_19error_info_injectorINS_21thread_resource_errorEEEEC1ERKS5_NS5_9clone_tagE
FNDA:0,_ZN5boost16exception_detail10clone_implINS0_19error_info_injectorINS_10lock_errorEEEEC1ERKS5_NS5_9clone_tagE
FNDA:0,_ZN5boost16exception_detail10clone_implINS0_19error_info_injectorINS_17bad_function_callEEEEC1ERKS5_NS5_9clone_tagE
FNDA:0,_ZN5boost16exception_detail10clone_implINS0_19error_info_injectorINS_17bad_function_callEEEEC1ERKS4_
FNDA:0,_ZN5boost16exception_detail10clone_implINS0_19error_info_injectorINS_10lock_errorEEEEC1ERKS4_
FNDA:0,_ZN5boost16exception_detail10clone_implINS0_19error_info_injectorINS_21thread_resource_errorEEEEC1ERKS4_
FNDA:0,_ZN5boost16exception_detail10clone_implINS0_19error_info_injectorINS_17bad_function_callEEEED0Ev
FNDA:0,_ZN5boost16exception_detail10clone_implINS0_19error_info_injectorINS_17bad_function_callEEEED1Ev
FNDA:0,_ZN5boost16exception_detail10clone_implINS0_19error_info_injectorINS_10lock_errorEEEED0Ev
FNDA:0,_ZN5boost16exception_detail10clone_implINS0_19error_info_injectorINS_10lock_errorEEEED1Ev
FNDA:0,_ZN5boost16exception_detail10clone_implINS0_19error_info_injectorINS_21thread_resource_errorEEEED0Ev
FNDA:0,_ZN5boost16exception_detail10clone_implINS0_19error_info_injectorINS_21thread_resource_errorEEEED1Ev
FNDA:0,_ZNK5boost16exception_detail10clone_implINS0_19error_info_injectorINS_21thread_resource_errorEEEE5cloneEv
FNDA:0,_ZNK5boost16exception_detail10clone_implINS0_19error_info_injectorINS_10lock_errorEEEE5cloneEv
FNDA:0,_ZNK5boost16exception_detail10clone_implINS0_19error_info_injectorINS_17bad_function_callEEEE5cloneEv
FNDA:0,_ZNK5boost16exception_detail10clone_implINS0_19error_info_injectorINS_21thread_resource_errorEEEE7rethrowEv
FNDA:0,_ZNK5boost16exception_detail10clone_implINS0_19error_info_injectorINS_10lock_errorEEEE7rethrowEv
FNDA:0,_ZNK5boost16exception_detail10clone_implINS0_19error_info_injectorINS_17bad_function_callEEEE7rethrowEv
FNDA:0,_ZN5boost24enable_current_exceptionINS_16exception_detail19error_info_injectorINS_17bad_function_callEEEEENS1_10clone_implIT_EERKS6_
FNDA:0,_ZN5boost24enable_current_exceptionINS_16exception_detail19error_info_injectorINS_10lock_errorEEEEENS1_10clone_implIT_EERKS6_
FNDA:0,_ZN5boost24enable_current_exceptionINS_16exception_detail19error_info_injectorINS_21thread_resource_errorEEEEENS1_10clone_implIT_EERKS6_
FNF:58
FNH:0
DA:35,0
DA:36,0
DA:38,0
DA:40,0
DA:42,0
DA:43,0
DA:45,0
DA:46,0
DA:48,0
DA:49,0
DA:52,0
DA:54,0
DA:55,0
DA:59,0
DA:61,0
DA:62,0
DA:63,0
DA:64,0
DA:67,0
DA:69,0
DA:77,0
DA:79,0
DA:80,0
DA:81,0
DA:84,0
DA:86,0
DA:87,0
DA:88,0
DA:162,0
DA:173,0
DA:174,0
DA:175,0
DA:225,0
DA:235,0
DA:238,0
DA:240,0
DA:303,0
DA:304,0
DA:306,0
DA:348,0
DA:353,0
DA:354,0
DA:356,0
DA:358,0
DA:360,0
DA:403,0
DA:406,0
DA:420,0
DA:428,0
DA:429,0
DA:430,0
DA:440,0
DA:442,0
DA:443,0
DA:444,0
DA:445,0
DA:446,0
DA:447,0
DA:448,0
DA:449,0
DA:464,0
DA:469,0
DA:470,0
DA:472,0
DA:473,0
DA:478,0
DA:479,0
DA:481,0
DA:482,0
DA:484,0
DA:486,0
DA:491,0
DA:493,0
DA:497,0
DA:499,0
DA:512,0
DA:514,0
LF:77
LH:0
end_of_record
SF:/usr/local/include/boost/exception/get_error_info.hpp
FN:56,_ZN5boost16exception_detail8get_infoINS_10error_infoINS_15throw_function_EPKcEEE3getERKNS_9exceptionE
FN:68,_ZN5boost16exception_detail8get_infoINS_10error_infoINS_11throw_file_EPKcEEE3getERKNS_9exceptionE
FN:80,_ZN5boost16exception_detail8get_infoINS_10error_infoINS_11throw_line_EiEEE3getERKNS_9exceptionE
FN:120,_ZN5boost14get_error_infoINS_10error_infoINS_11throw_file_EPKcEEKNS_9exceptionEEENS_16exception_detail26get_error_info_return_typeIT0_NT_10value_typeEE4typeERSA_
FN:120,_ZN5boost14get_error_infoINS_10error_infoINS_11throw_line_EiEEKNS_9exceptionEEENS_16exception_detail26get_error_info_return_typeIT0_NT_10value_typeEE4typeERS8_
FN:120,_ZN5boost14get_error_infoINS_10error_infoINS_15throw_function_EPKcEEKNS_9exceptionEEENS_16exception_detail26get_error_info_return_typeIT0_NT_10value_typeEE4typeERSA_
FNDA:0,_ZN5boost16exception_detail8get_infoINS_10error_infoINS_15throw_function_EPKcEEE3getERKNS_9exceptionE
FNDA:0,_ZN5boost16exception_detail8get_infoINS_10error_infoINS_11throw_file_EPKcEEE3getERKNS_9exceptionE
FNDA:0,_ZN5boost16exception_detail8get_infoINS_10error_infoINS_11throw_line_EiEEE3getERKNS_9exceptionE
FNDA:0,_ZN5boost14get_error_infoINS_10error_infoINS_15throw_function_EPKcEEKNS_9exceptionEEENS_16exception_detail26get_error_info_return_typeIT0_NT_10value_typeEE4typeERSA_
FNDA:0,_ZN5boost14get_error_infoINS_10error_infoINS_11throw_line_EiEEKNS_9exceptionEEENS_16exception_detail26get_error_info_return_typeIT0_NT_10value_typeEE4typeERS8_
FNDA:0,_ZN5boost14get_error_infoINS_10error_infoINS_11throw_file_EPKcEEKNS_9exceptionEEENS_16exception_detail26get_error_info_return_typeIT0_NT_10value_typeEE4typeERSA_
FNF:6
FNH:0
DA:56,0
DA:58,0
DA:68,0
DA:70,0
DA:80,0
DA:82,0
DA:120,0
DA:122,0
DA:123,0
DA:125,0
LF:10
LH:0
end_of_record
SF:/usr/local/include/boost/exception/info.hpp
FN:60,_ZN5boost16exception_detail25error_info_container_implC2Ev
FN:65,_ZN5boost16exception_detail25error_info_container_implD2Ev
FN:70,_ZN5boost16exception_detail25error_info_container_impl3setERKNS_10shared_ptrINS0_15error_info_baseEEERKNS0_10type_info_E
FN:78,_ZNK5boost16exception_detail25error_info_container_impl3getERKNS0_10type_info_E
FN:93,_ZNK5boost16exception_detail25error_info_container_impl22diagnostic_informationEPKc
FN:122,_ZNK5boost16exception_detail25error_info_container_impl7add_refEv
FN:128,_ZNK5boost16exception_detail25error_info_container_impl7releaseEv
FN:140,_ZNK5boost16exception_detail25error_info_container_impl5cloneEv
FNDA:0,_ZN5boost16exception_detail25error_info_container_implC2Ev
FNDA:0,_ZN5boost16exception_detail25error_info_container_implD2Ev
FNDA:0,_ZN5boost16exception_detail25error_info_container_impl3setERKNS_10shared_ptrINS0_15error_info_baseEEERKNS0_10type_info_E
FNDA:0,_ZNK5boost16exception_detail25error_info_container_impl3getERKNS0_10type_info_E
FNDA:0,_ZNK5boost16exception_detail25error_info_container_impl22diagnostic_informationEPKc
FNDA:0,_ZNK5boost16exception_detail25error_info_container_impl7add_refEv
FNDA:0,_ZNK5boost16exception_detail25error_info_container_impl7releaseEv
FNDA:0,_ZNK5boost16exception_detail25error_info_container_impl5cloneEv
FNF:8
FNH:0
DA:60,0
DA:61,0
DA:63,0
DA:65,0
DA:66,0
DA:67,0
DA:70,0
DA:72,0
DA:73,0
DA:74,0
DA:75,0
DA:78,0
DA:80,0
DA:81,0
DA:83,0
DA:85,0
DA:87,0
DA:89,0
DA:93,0
DA:95,0
DA:97,0
DA:98,0
DA:99,0
DA:101,0
DA:102,0
DA:104,0
DA:106,0
DA:122,0
DA:124,0
DA:125,0
DA:128,0
DA:130,0
DA:131,0
DA:134,0
DA:135,0
DA:140,0
DA:142,0
DA:143,0
DA:144,0
DA:145,0
DA:147,0
DA:148,0
DA:150,0
LF:43
LH:0
end_of_record
SF:/usr/local/include/boost/function/function_base.hpp
FN:259,_ZN5boost6detail8function22functor_manager_commonIPFvNS_8contract4fromEEE10manage_ptrERKNS1_15function_bufferERS8_NS1_30functor_manager_operation_typeE
FN:283,_ZN5boost6detail8function22functor_manager_commonIZN35NumberTheoryCalculatorWithContracts3divEiiEUlvE_E12manage_smallERKNS1_15function_bufferERS6_NS1_30functor_manager_operation_typeE
FN:283,_ZN5boost6detail8function22functor_manager_commonIZN35NumberTheoryCalculatorWithContracts3mcdEiiEUlvE_E12manage_smallERKNS1_15function_bufferERS6_NS1_30functor_manager_operation_typeE
FN:322,_ZN5boost6detail8function15functor_managerIPFvNS_8contract4fromEEE7managerERKNS1_15function_bufferERS8_NS1_30functor_manager_operation_typeENS1_16function_ptr_tagE
FN:330,_ZN5boost6detail8function15functor_managerIZN35NumberTheoryCalculatorWithContracts3mcdEiiEUlvE_E7managerERKNS1_15function_bufferERS6_NS1_30functor_manager_operation_typeEN4mpl_5bool_ILb1EEE
FN:330,_ZN5boost6detail8function15functor_managerIZN35NumberTheoryCalculatorWithContracts3divEiiEUlvE_E7managerERKNS1_15function_bufferERS6_NS1_30functor_manager_operation_typeEN4mpl_5bool_ILb1EEE
FN:376,_ZN5boost6detail8function15functor_managerIZN35NumberTheoryCalculatorWithContracts3mcdEiiEUlvE_E7managerERKNS1_15function_bufferERS6_NS1_30functor_manager_operation_typeENS1_16function_obj_tagE
FN:376,_ZN5boost6detail8function15functor_managerIZN35NumberTheoryCalculatorWithContracts3divEiiEUlvE_E7managerERKNS1_15function_bufferERS6_NS1_30functor_manager_operation_typeENS1_16function_obj_tagE
FN:395,_ZN5boost6detail8function15functor_managerIPFvNS_8contract4fromEEE6manageERKNS1_15function_bufferERS8_NS1_30functor_manager_operation_typeE
FN:395,_ZN5boost6detail8function15functor_managerIZN35NumberTheoryCalculatorWithContracts3mcdEiiEUlvE_E6manageERKNS1_15function_bufferERS6_NS1_30functor_manager_operation_typeE
FN:395,_ZN5boost6detail8function15functor_managerIZN35NumberTheoryCalculatorWithContracts3divEiiEUlvE_E6manageERKNS1_15function_bufferERS6_NS1_30functor_manager_operation_typeE
FN:611,_ZN5boost13function_baseC2Ev
FN:614,_ZNK5boost13function_base5emptyEv
FN:697,_ZNK5boost13function_base28has_trivial_copy_and_destroyEv
FN:713,_ZN5boost17bad_function_callC2ERKS0_
FN:713,_ZN5boost17bad_function_callD2Ev
FN:713,_ZN5boost17bad_function_callD0Ev
FN:716,_ZN5boost17bad_function_callC2Ev
FN:871,_ZN5boost6detail8function16has_empty_targetEz
FNDA:0,_ZN5boost6detail8function22functor_manager_commonIPFvNS_8contract4fromEEE10manage_ptrERKNS1_15function_bufferERS8_NS1_30functor_manager_operation_typeE
FNDA:0,_ZN5boost6detail8function22functor_manager_commonIZN35NumberTheoryCalculatorWithContracts3mcdEiiEUlvE_E12manage_smallERKNS1_15function_bufferERS6_NS1_30functor_manager_operation_typeE
FNDA:0,_ZN5boost6detail8function22functor_manager_commonIZN35NumberTheoryCalculatorWithContracts3divEiiEUlvE_E12manage_smallERKNS1_15function_bufferERS6_NS1_30functor_manager_operation_typeE
FNDA:0,_ZN5boost6detail8function15functor_managerIPFvNS_8contract4fromEEE7managerERKNS1_15function_bufferERS8_NS1_30functor_manager_operation_typeENS1_16function_ptr_tagE
FNDA:0,_ZN5boost6detail8function15functor_managerIZN35NumberTheoryCalculatorWithContracts3mcdEiiEUlvE_E7managerERKNS1_15function_bufferERS6_NS1_30functor_manager_operation_typeEN4mpl_5bool_ILb1EEE
FNDA:0,_ZN5boost6detail8function15functor_managerIZN35NumberTheoryCalculatorWithContracts3divEiiEUlvE_E7managerERKNS1_15function_bufferERS6_NS1_30functor_manager_operation_typeEN4mpl_5bool_ILb1EEE
FNDA:0,_ZN5boost6detail8function15functor_managerIZN35NumberTheoryCalculatorWithContracts3mcdEiiEUlvE_E7managerERKNS1_15function_bufferERS6_NS1_30functor_manager_operation_typeENS1_16function_obj_tagE
FNDA:0,_ZN5boost6detail8function15functor_managerIZN35NumberTheoryCalculatorWithContracts3divEiiEUlvE_E7managerERKNS1_15function_bufferERS6_NS1_30functor_manager_operation_typeENS1_16function_obj_tagE
FNDA:0,_ZN5boost6detail8function15functor_managerIZN35NumberTheoryCalculatorWithContracts3mcdEiiEUlvE_E6manageERKNS1_15function_bufferERS6_NS1_30functor_manager_operation_typeE
FNDA:0,_ZN5boost6detail8function15functor_managerIZN35NumberTheoryCalculatorWithContracts3divEiiEUlvE_E6manageERKNS1_15function_bufferERS6_NS1_30functor_manager_operation_typeE
FNDA:0,_ZN5boost6detail8function15functor_managerIPFvNS_8contract4fromEEE6manageERKNS1_15function_bufferERS8_NS1_30functor_manager_operation_typeE
FNDA:0,_ZN5boost13function_baseC2Ev
FNDA:0,_ZNK5boost13function_base5emptyEv
FNDA:0,_ZNK5boost13function_base28has_trivial_copy_and_destroyEv
FNDA:0,_ZN5boost17bad_function_callC2ERKS0_
FNDA:0,_ZN5boost17bad_function_callD0Ev
FNDA:0,_ZN5boost17bad_function_callD2Ev
FNDA:0,_ZN5boost17bad_function_callC2Ev
FNDA:0,_ZN5boost6detail8function16has_empty_targetEz
FNF:19
FNH:0
DA:259,0
DA:262,0
DA:263,0
DA:264,0
DA:265,0
DA:266,0
DA:267,0
DA:268,0
DA:269,0
DA:270,0
DA:271,0
DA:273,0
DA:275,0
DA:276,0
DA:277,0
DA:279,0
DA:283,0
DA:286,0
DA:287,0
DA:289,0
DA:291,0
DA:292,0
DA:295,0
DA:296,0
DA:298,0
DA:301,0
DA:302,0
DA:303,0
DA:305,0
DA:307,0
DA:308,0
DA:309,0
DA:311,0
DA:322,0
DA:325,0
DA:326,0
DA:330,0
DA:333,0
DA:334,0
DA:376,0
DA:379,0
DA:381,0
DA:395,0
DA:399,0
DA:400,0
DA:401,0
DA:402,0
DA:403,0
DA:404,0
DA:406,0
DA:407,0
DA:408,0
DA:611,0
DA:614,0
DA:697,0
DA:698,0
DA:713,0
DA:716,0
DA:871,0
DA:873,0
LF:60
LH:0
end_of_record
SF:/usr/local/include/boost/function/function_template.hpp
FN:113,_ZN5boost6detail8function22void_function_invoker1IPFvNS_8contract4fromEEvS4_E6invokeERNS1_15function_bufferES4_
FN:150,_ZN5boost6detail8function26void_function_obj_invoker0IZN35NumberTheoryCalculatorWithContracts3mcdEiiEUlvE_vE6invokeERNS1_15function_bufferE
FN:150,_ZN5boost6detail8function26void_function_obj_invoker0IZN35NumberTheoryCalculatorWithContracts3divEiiEUlvE_vE6invokeERNS1_15function_bufferE
FN:495,_ZNK5boost6detail8function13basic_vtable0IvE9assign_toIZN35NumberTheoryCalculatorWithContracts3mcdEiiEUlvE_EEbT_RNS1_15function_bufferE
FN:495,_ZNK5boost6detail8function13basic_vtable1IvNS_8contract4fromEE9assign_toIPFvS4_EEEbT_RNS1_15function_bufferE
FN:495,_ZNK5boost6detail8function13basic_vtable0IvE9assign_toIZN35NumberTheoryCalculatorWithContracts3divEiiEUlvE_EEbT_RNS1_15function_bufferE
FN:507,_ZNK5boost6detail8function13basic_vtable0IvE5clearERNS1_15function_bufferE
FN:507,_ZNK5boost6detail8function13basic_vtable1IvNS_8contract4fromEE5clearERNS1_15function_bufferE
FN:517,_ZNK5boost6detail8function13basic_vtable1IvNS_8contract4fromEE9assign_toIPFvS4_EEEbT_RNS1_15function_bufferENS1_16function_ptr_tagE
FN:570,_ZNK5boost6detail8function13basic_vtable0IvE14assign_functorIZN35NumberTheoryCalculatorWithContracts3divEiiEUlvE_EEvT_RNS1_15function_bufferEN4mpl_5bool_ILb1EEE
FN:570,_ZNK5boost6detail8function13basic_vtable0IvE14assign_functorIZN35NumberTheoryCalculatorWithContracts3mcdEiiEUlvE_EEvT_RNS1_15function_bufferEN4mpl_5bool_ILb1EEE
FN:614,_ZNK5boost6detail8function13basic_vtable0IvE9assign_toIZN35NumberTheoryCalculatorWithContracts3mcdEiiEUlvE_EEbT_RNS1_15function_bufferENS1_16function_obj_tagE
FN:614,_ZNK5boost6detail8function13basic_vtable0IvE9assign_toIZN35NumberTheoryCalculatorWithContracts3divEiiEUlvE_EEbT_RNS1_15function_bufferENS1_16function_obj_tagE
FN:682,_ZNK5boost9function1IvNS_8contract4fromEE10get_vtableEv
FN:682,_ZNK5boost9function0IvE10get_vtableEv
FN:711,_ZN5boost9function0IvEC2Ev
FN:716,_ZN5boost9function0IvEC2IZN35NumberTheoryCalculatorWithContracts3mcdEiiEUlvE_EET_NS_11enable_if_cIXntsrNS_11is_integralIS5_EE5valueEiE4typeE
FN:716,_ZN5boost9function0IvEC2IZN35NumberTheoryCalculatorWithContracts3divEiiEUlvE_EET_NS_11enable_if_cIXntsrNS_11is_integralIS5_EE5valueEiE4typeE
FN:716,_ZN5boost9function1IvNS_8contract4fromEEC2IPFvS2_EEET_NS_11enable_if_cIXntsrNS_11is_integralIS7_EE5valueEiE4typeE
FN:761,_ZN5boost9function0IvED2Ev
FN:761,_ZN5boost9function1IvNS_8contract4fromEED2Ev
FN:763,_ZNK5boost9function1IvNS_8contract4fromEEclES2_
FN:763,_ZNK5boost9function0IvEclEv
FN:861,_ZN5boost9function0IvE4swapERS1_
FN:873,_ZN5boost9function1IvNS_8contract4fromEE5clearEv
FN:873,_ZN5boost9function0IvE5clearEv
FN:888,_ZN5boost9function0IvE5dummy7nonnullEv
FN:894,_ZNK5boost9function0IvEcvMNS1_5dummyEFvvEEv
FN:917,_ZN5boost9function1IvNS_8contract4fromEE9assign_toIPFvS2_EEEvT_
FN:917,_ZN5boost9function0IvE9assign_toIZN35NumberTheoryCalculatorWithContracts3mcdEiiEUlvE_EEvT_
FN:917,_ZN5boost9function0IvE9assign_toIZN35NumberTheoryCalculatorWithContracts3divEiiEUlvE_EEvT_
FN:988,_ZN5boost9function0IvE11move_assignERS1_
FN:1054,_ZN5boost8functionIFvvEED2Ev
FN:1054,_ZN5boost8functionIFvNS_8contract4fromEEED2Ev
FN:1064,_ZN5boost8functionIFvvEEC2Ev
FN:1067,_ZN5boost8functionIFvNS_8contract4fromEEEC2IPS3_EET_NS_11enable_if_cIXntsrNS_11is_integralIS7_EE5valueEiE4typeE
FN:1067,_ZN5boost8functionIFvvEEC2IZN35NumberTheoryCalculatorWithContracts3mcdEiiEUlvE_EET_NS_11enable_if_cIXntsrNS_11is_integralIS6_EE5valueEiE4typeE
FN:1067,_ZN5boost8functionIFvvEEC2IZN35NumberTheoryCalculatorWithContracts3divEiiEUlvE_EET_NS_11enable_if_cIXntsrNS_11is_integralIS6_EE5valueEiE4typeE
FN:1125,_ZN5boost8functionIFvvEEaSIZN35NumberTheoryCalculatorWithContracts3mcdEiiEUlvE_EENS_11enable_if_cIXntsrNS_11is_integralIT_EE5valueERS2_E4typeES8_
FN:1125,_ZN5boost8functionIFvvEEaSIZN35NumberTheoryCalculatorWithContracts3divEiiEUlvE_EENS_11enable_if_cIXntsrNS_11is_integralIT_EE5valueERS2_E4typeES8_
FNDA:0,_ZN5boost6detail8function22void_function_invoker1IPFvNS_8contract4fromEEvS4_E6invokeERNS1_15function_bufferES4_
FNDA:20,_ZN5boost6detail8function26void_function_obj_invoker0IZN35NumberTheoryCalculatorWithContracts3mcdEiiEUlvE_vE6invokeERNS1_15function_bufferE
FNDA:92,_ZN5boost6detail8function26void_function_obj_invoker0IZN35NumberTheoryCalculatorWithContracts3divEiiEUlvE_vE6invokeERNS1_15function_bufferE
FNDA:20,_ZNK5boost6detail8function13basic_vtable0IvE9assign_toIZN35NumberTheoryCalculatorWithContracts3mcdEiiEUlvE_EEbT_RNS1_15function_bufferE
FNDA:92,_ZNK5boost6detail8function13basic_vtable0IvE9assign_toIZN35NumberTheoryCalculatorWithContracts3divEiiEUlvE_EEbT_RNS1_15function_bufferE
FNDA:0,_ZNK5boost6detail8function13basic_vtable1IvNS_8contract4fromEE9assign_toIPFvS4_EEEbT_RNS1_15function_bufferE
FNDA:0,_ZNK5boost6detail8function13basic_vtable1IvNS_8contract4fromEE5clearERNS1_15function_bufferE
FNDA:0,_ZNK5boost6detail8function13basic_vtable0IvE5clearERNS1_15function_bufferE
FNDA:0,_ZNK5boost6detail8function13basic_vtable1IvNS_8contract4fromEE9assign_toIPFvS4_EEEbT_RNS1_15function_bufferENS1_16function_ptr_tagE
FNDA:20,_ZNK5boost6detail8function13basic_vtable0IvE14assign_functorIZN35NumberTheoryCalculatorWithContracts3mcdEiiEUlvE_EEvT_RNS1_15function_bufferEN4mpl_5bool_ILb1EEE
FNDA:92,_ZNK5boost6detail8function13basic_vtable0IvE14assign_functorIZN35NumberTheoryCalculatorWithContracts3divEiiEUlvE_EEvT_RNS1_15function_bufferEN4mpl_5bool_ILb1EEE
FNDA:20,_ZNK5boost6detail8function13basic_vtable0IvE9assign_toIZN35NumberTheoryCalculatorWithContracts3mcdEiiEUlvE_EEbT_RNS1_15function_bufferENS1_16function_obj_tagE
FNDA:92,_ZNK5boost6detail8function13basic_vtable0IvE9assign_toIZN35NumberTheoryCalculatorWithContracts3divEiiEUlvE_EEbT_RNS1_15function_bufferENS1_16function_obj_tagE
FNDA:0,_ZNK5boost9function1IvNS_8contract4fromEE10get_vtableEv
FNDA:0,_ZNK5boost9function0IvE10get_vtableEv
FNDA:0,_ZN5boost9function0IvEC2Ev
FNDA:20,_ZN5boost9function0IvEC2IZN35NumberTheoryCalculatorWithContracts3mcdEiiEUlvE_EET_NS_11enable_if_cIXntsrNS_11is_integralIS5_EE5valueEiE4typeE
FNDA:92,_ZN5boost9function0IvEC2IZN35NumberTheoryCalculatorWithContracts3divEiiEUlvE_EET_NS_11enable_if_cIXntsrNS_11is_integralIS5_EE5valueEiE4typeE
FNDA:0,_ZN5boost9function1IvNS_8contract4fromEEC2IPFvS2_EEET_NS_11enable_if_cIXntsrNS_11is_integralIS7_EE5valueEiE4typeE
FNDA:0,_ZN5boost9function1IvNS_8contract4fromEED2Ev
FNDA:0,_ZN5boost9function0IvED2Ev
FNDA:3,_ZNK5boost9function1IvNS_8contract4fromEEclES2_
FNDA:112,_ZNK5boost9function0IvEclEv
FNDA:0,_ZN5boost9function0IvE4swapERS1_
FNDA:0,_ZN5boost9function1IvNS_8contract4fromEE5clearEv
FNDA:0,_ZN5boost9function0IvE5clearEv
FNDA:0,_ZN5boost9function0IvE5dummy7nonnullEv
FNDA:330,_ZNK5boost9function0IvEcvMNS1_5dummyEFvvEEv
FNDA:20,_ZN5boost9function0IvE9assign_toIZN35NumberTheoryCalculatorWithContracts3mcdEiiEUlvE_EEvT_
FNDA:92,_ZN5boost9function0IvE9assign_toIZN35NumberTheoryCalculatorWithContracts3divEiiEUlvE_EEvT_
FNDA:0,_ZN5boost9function1IvNS_8contract4fromEE9assign_toIPFvS2_EEEvT_
FNDA:0,_ZN5boost9function0IvE11move_assignERS1_
FNDA:0,_ZN5boost8functionIFvNS_8contract4fromEEED2Ev
FNDA:0,_ZN5boost8functionIFvvEED2Ev
FNDA:448,_ZN5boost8functionIFvvEEC2Ev
FNDA:20,_ZN5boost8functionIFvvEEC2IZN35NumberTheoryCalculatorWithContracts3mcdEiiEUlvE_EET_NS_11enable_if_cIXntsrNS_11is_integralIS6_EE5valueEiE4typeE
FNDA:92,_ZN5boost8functionIFvvEEC2IZN35NumberTheoryCalculatorWithContracts3divEiiEUlvE_EET_NS_11enable_if_cIXntsrNS_11is_integralIS6_EE5valueEiE4typeE
FNDA:0,_ZN5boost8functionIFvNS_8contract4fromEEEC2IPS3_EET_NS_11enable_if_cIXntsrNS_11is_integralIS7_EE5valueEiE4typeE
FNDA:20,_ZN5boost8functionIFvvEEaSIZN35NumberTheoryCalculatorWithContracts3mcdEiiEUlvE_EENS_11enable_if_cIXntsrNS_11is_integralIT_EE5valueERS2_E4typeES8_
FNDA:92,_ZN5boost8functionIFvvEEaSIZN35NumberTheoryCalculatorWithContracts3divEiiEUlvE_EENS_11enable_if_cIXntsrNS_11is_integralIT_EE5valueERS2_E4typeES8_
FNF:40
FNH:20
DA:113,0
DA:117,0
DA:118,0
DA:119,0
DA:150,112
DA:156,112
DA:159,112
DA:160,109
DA:495,112
DA:498,112
DA:507,0
DA:509,0
DA:510,0
DA:511,0
DA:517,0
DA:519,0
DA:520,0
DA:523,0
DA:524,0
DA:526,0
DA:570,112
DA:572,112
DA:573,112
DA:614,112
DA:616,112
DA:617,112
DA:619,112
DA:621,0
DA:682,0
DA:684,0
DA:711,0
DA:716,112
DA:723,112
DA:725,112
DA:726,112
DA:761,0
DA:763,115
DA:765,115
DA:766,0
DA:768,118
DA:769,112
DA:861,0
DA:863,0
DA:864,0
DA:866,0
DA:867,0
DA:868,0
DA:869,0
DA:873,0
DA:875,0
DA:876,0
DA:877,0
DA:878,0
DA:880,0
DA:888,0
DA:894,330
DA:895,330
DA:917,112
DA:938,112
DA:939,112
DA:944,112
DA:945,112
DA:947,0
DA:948,112
DA:988,0
DA:990,0
DA:991,0
DA:994,0
DA:995,0
DA:996,0
DA:999,0
DA:1001,0
DA:1003,0
DA:1005,0
DA:1007,0
DA:1008,0
DA:1009,0
DA:1054,0
DA:1064,448
DA:1067,112
DA:1074,112
DA:1076,112
DA:1125,112
DA:1127,112
DA:1128,112
LF:85
LH:36
end_of_record
SF:/usr/local/include/boost/move/utility_core.hpp
DA:249,3
LF:1
LH:1
end_of_record
SF:/usr/local/include/boost/none.hpp
DA:52,1
LF:1
LH:1
end_of_record
SF:/usr/local/include/boost/none_t.hpp
FN:32,_ZN5boost6none_tC2ENS0_8init_tagE
FNDA:0,_ZN5boost6none_tC2ENS0_8init_tagE
FNF:1
FNH:0
DA:32,0
LF:1
LH:0
end_of_record
SF:/usr/local/include/boost/optional/optional.hpp
FN:89,_ZN5boost11optional_ns15in_place_init_tC2ENS1_8init_tagE
FN:97,_ZN5boost11optional_ns18in_place_init_if_tC2ENS1_8init_tagE
FNDA:0,_ZN5boost11optional_ns15in_place_init_tC2ENS1_8init_tagE
FNDA:0,_ZN5boost11optional_ns18in_place_init_if_tC2ENS1_8init_tagE
FNF:2
FNH:0
DA:89,0
DA:91,1
DA:97,0
DA:99,1
LF:4
LH:2
end_of_record
SF:/usr/local/include/boost/smart_ptr/detail/operator_bool.hpp
FN:12,_ZNK5boost10shared_ptrINS_16exception_detail15error_info_baseEEcvbEv
FNDA:0,_ZNK5boost10shared_ptrINS_16exception_detail15error_info_baseEEcvbEv
FNF:1
FNH:0
DA:12,0
DA:14,0
LF:2
LH:0
end_of_record
SF:/usr/local/include/boost/smart_ptr/detail/shared_count.hpp
FN:121,_ZN5boost6detail12shared_countC2Ev
FN:135,_ZN5boost6detail12shared_countC2INS_16exception_detail15error_info_baseEEEPT_
FN:424,_ZN5boost6detail12shared_countD2Ev
FN:432,_ZN5boost6detail12shared_countC2ERKS1_
FN:469,_ZN5boost6detail12shared_count4swapERS1_
FNDA:0,_ZN5boost6detail12shared_countC2Ev
FNDA:0,_ZN5boost6detail12shared_countC2INS_16exception_detail15error_info_baseEEEPT_
FNDA:0,_ZN5boost6detail12shared_countD2Ev
FNDA:0,_ZN5boost6detail12shared_countC2ERKS1_
FNDA:0,_ZN5boost6detail12shared_count4swapERS1_
FNF:5
FNH:0
DA:121,0
DA:126,0
DA:135,0
DA:144,0
DA:146,0
DA:148,0
DA:149,0
DA:163,0
DA:424,0
DA:425,0
DA:426,0
DA:430,0
DA:432,0
DA:437,0
DA:438,0
DA:469,0
DA:471,0
DA:472,0
DA:473,0
DA:474,0
LF:20
LH:0
end_of_record
SF:/usr/local/include/boost/smart_ptr/detail/sp_counted_base_std_atomic.hpp
FN:28,_ZN5boost6detail16atomic_incrementEPSt6atomicIiE
FN:33,_ZN5boost6detail16atomic_decrementEPSt6atomicIiE
FN:72,_ZN5boost6detail15sp_counted_baseC2Ev
FN:76,_ZN5boost6detail15sp_counted_baseD2Ev
FN:76,_ZN5boost6detail15sp_counted_baseD0Ev
FN:87,_ZN5boost6detail15sp_counted_base7destroyEv
FN:96,_ZN5boost6detail15sp_counted_base12add_ref_copyEv
FN:106,_ZN5boost6detail15sp_counted_base7releaseEv
FN:120,_ZN5boost6detail15sp_counted_base12weak_releaseEv
FNDA:0,_ZN5boost6detail16atomic_incrementEPSt6atomicIiE
FNDA:0,_ZN5boost6detail16atomic_decrementEPSt6atomicIiE
FNDA:0,_ZN5boost6detail15sp_counted_baseC2Ev
FNDA:0,_ZN5boost6detail15sp_counted_baseD0Ev
FNDA:0,_ZN5boost6detail15sp_counted_baseD2Ev
FNDA:0,_ZN5boost6detail15sp_counted_base7destroyEv
FNDA:0,_ZN5boost6detail15sp_counted_base12add_ref_copyEv
FNDA:0,_ZN5boost6detail15sp_counted_base7releaseEv
FNDA:0,_ZN5boost6detail15sp_counted_base12weak_releaseEv
FNF:9
FNH:0
DA:28,0
DA:30,0
DA:31,0
DA:33,0
DA:35,0
DA:72,0
DA:74,0
DA:76,0
DA:77,0
DA:78,0
DA:87,0
DA:89,0
DA:90,0
DA:96,0
DA:98,0
DA:99,0
DA:106,0
DA:108,0
DA:110,0
DA:111,0
DA:113,0
DA:120,0
DA:122,0
DA:124,0
DA:126,0
LF:25
LH:0
end_of_record
SF:/usr/local/include/boost/smart_ptr/detail/sp_counted_impl.hpp
FN:67,_ZN5boost6detail17sp_counted_impl_pINS_16exception_detail15error_info_baseEED2Ev
FN:67,_ZN5boost6detail17sp_counted_impl_pINS_16exception_detail15error_info_baseEED0Ev
FN:80,_ZN5boost6detail17sp_counted_impl_pINS_16exception_detail15error_info_baseEEC2EPS3_
FN:87,_ZN5boost6detail17sp_counted_impl_pINS_16exception_detail15error_info_baseEE7disposeEv
FN:95,_ZN5boost6detail17sp_counted_impl_pINS_16exception_detail15error_info_baseEE11get_deleterERKSt9type_info
FN:100,_ZN5boost6detail17sp_counted_impl_pINS_16exception_detail15error_info_baseEE17get_local_deleterERKSt9type_info
FN:105,_ZN5boost6detail17sp_counted_impl_pINS_16exception_detail15error_info_baseEE19get_untyped_deleterEv
FNDA:0,_ZN5boost6detail17sp_counted_impl_pINS_16exception_detail15error_info_baseEED0Ev
FNDA:0,_ZN5boost6detail17sp_counted_impl_pINS_16exception_detail15error_info_baseEED2Ev
FNDA:0,_ZN5boost6detail17sp_counted_impl_pINS_16exception_detail15error_info_baseEEC2EPS3_
FNDA:0,_ZN5boost6detail17sp_counted_impl_pINS_16exception_detail15error_info_baseEE7disposeEv
FNDA:0,_ZN5boost6detail17sp_counted_impl_pINS_16exception_detail15error_info_baseEE11get_deleterERKSt9type_info
FNDA:0,_ZN5boost6detail17sp_counted_impl_pINS_16exception_detail15error_info_baseEE17get_local_deleterERKSt9type_info
FNDA:0,_ZN5boost6detail17sp_counted_impl_pINS_16exception_detail15error_info_baseEE19get_untyped_deleterEv
FNF:7
FNH:0
DA:67,0
DA:80,0
DA:85,0
DA:87,0
DA:92,0
DA:93,0
DA:95,0
DA:97,0
DA:100,0
DA:102,0
DA:105,0
DA:107,0
LF:12
LH:0
end_of_record
SF:/usr/local/include/boost/smart_ptr/shared_ptr.hpp
FN:242,_ZN5boost6detail26sp_enable_shared_from_thisEz
FN:283,_ZN5boost6detail20sp_pointer_constructINS_16exception_detail15error_info_baseES3_EEvPNS_10shared_ptrIT_EEPT0_RNS0_12shared_countE
FN:341,_ZN5boost10shared_ptrINS_16exception_detail15error_info_baseEED2Ev
FN:352,_ZN5boost10shared_ptrINS_16exception_detail15error_info_baseEEC2Ev
FN:377,_ZN5boost10shared_ptrINS_16exception_detail15error_info_baseEEC2IS2_EEPT_
FN:422,_ZN5boost10shared_ptrINS_16exception_detail15error_info_baseEEC2ERKS3_
FN:547,_ZN5boost10shared_ptrINS_16exception_detail15error_info_baseEEaSERKS3_
FN:634,_ZN5boost10shared_ptrINS_16exception_detail15error_info_baseEEC2EOS3_
FN:726,_ZNK5boost10shared_ptrINS_16exception_detail15error_info_baseEEdeEv
FN:732,_ZNK5boost10shared_ptrINS_16exception_detail15error_info_baseEEptEv
FN:764,_ZN5boost10shared_ptrINS_16exception_detail15error_info_baseEE4swapERS3_
FNDA:0,_ZN5boost6detail26sp_enable_shared_from_thisEz
FNDA:0,_ZN5boost6detail20sp_pointer_constructINS_16exception_detail15error_info_baseES3_EEvPNS_10shared_ptrIT_EEPT0_RNS0_12shared_countE
FNDA:0,_ZN5boost10shared_ptrINS_16exception_detail15error_info_baseEED2Ev
FNDA:0,_ZN5boost10shared_ptrINS_16exception_detail15error_info_baseEEC2Ev
FNDA:0,_ZN5boost10shared_ptrINS_16exception_detail15error_info_baseEEC2IS2_EEPT_
FNDA:0,_ZN5boost10shared_ptrINS_16exception_detail15error_info_baseEEC2ERKS3_
FNDA:0,_ZN5boost10shared_ptrINS_16exception_detail15error_info_baseEEaSERKS3_
FNDA:0,_ZN5boost10shared_ptrINS_16exception_detail15error_info_baseEEC2EOS3_
FNDA:0,_ZNK5boost10shared_ptrINS_16exception_detail15error_info_baseEEdeEv
FNDA:0,_ZNK5boost10shared_ptrINS_16exception_detail15error_info_baseEEptEv
FNDA:0,_ZN5boost10shared_ptrINS_16exception_detail15error_info_baseEE4swapERS3_
FNF:11
FNH:0
DA:242,0
DA:244,0
DA:283,0
DA:285,0
DA:286,0
DA:287,0
DA:341,0
DA:352,0
DA:354,0
DA:377,0
DA:379,0
DA:380,0
DA:422,0
DA:424,0
DA:547,0
DA:549,0
DA:550,0
DA:634,0
DA:636,0
DA:637,0
DA:638,0
DA:726,0
DA:728,0
DA:729,0
DA:732,0
DA:734,0
DA:735,0
DA:764,0
DA:766,0
DA:767,0
DA:768,0
LF:31
LH:0
end_of_record
SF:/usr/local/include/boost/system/error_code.hpp
FN:229,_ZN5boost6system14error_category12std_categoryD0Ev
FN:229,_ZN5boost6system14error_category12std_categoryD2Ev
FN:241,_ZNK5boost6system14error_category12std_category4nameEv
FN:246,_ZNK5boost6system14error_category12std_category7messageB5cxx11Ei
FN:265,_ZNK5boost6system14error_categorycvRKNSt3_V214error_categoryEEv
FN:332,_ZN5boost6systemeqERKNS0_14error_categoryES3_
FN:476,_ZN5boost6system16generic_categoryEv
FN:527,_ZN5boost6system15error_conditionC2EiRKNS0_14error_categoryE
FN:562,_ZNK5boost6system15error_condition5valueEv
FN:563,_ZNK5boost6system15error_condition8categoryEv
FN:610,_ZNK5boost6system15error_conditioncvSt15error_conditionEv
FN:637,_ZN5boost6system10error_codeC2EiRKNS0_14error_categoryE
FN:670,_ZNK5boost6system10error_code5valueEv
FN:674,_ZNK5boost6system10error_code7messageB5cxx11Ev
FN:863,_ZNK5boost6system14error_category12std_category23default_error_conditionEi
FN:869,_ZNK5boost6system14error_category12std_category10equivalentEiRKSt15error_condition
FN:899,_ZNK5boost6system14error_category12std_category10equivalentERKSt10error_codei
FNDA:0,_ZN5boost6system14error_category12std_categoryD0Ev
FNDA:0,_ZN5boost6system14error_category12std_categoryD2Ev
FNDA:0,_ZNK5boost6system14error_category12std_category4nameEv
FNDA:0,_ZNK5boost6system14error_category12std_category7messageB5cxx11Ei
FNDA:0,_ZNK5boost6system14error_categorycvRKNSt3_V214error_categoryEEv
FNDA:0,_ZN5boost6systemeqERKNS0_14error_categoryES3_
FNDA:0,_ZN5boost6system16generic_categoryEv
FNDA:0,_ZN5boost6system15error_conditionC2EiRKNS0_14error_categoryE
FNDA:0,_ZNK5boost6system15error_condition5valueEv
FNDA:0,_ZNK5boost6system15error_condition8categoryEv
FNDA:0,_ZNK5boost6system15error_conditioncvSt15error_conditionEv
FNDA:0,_ZN5boost6system10error_codeC2EiRKNS0_14error_categoryE
FNDA:0,_ZNK5boost6system10error_code5valueEv
FNDA:0,_ZNK5boost6system10error_code7messageB5cxx11Ev
FNDA:0,_ZNK5boost6system14error_category12std_category23default_error_conditionEi
FNDA:0,_ZNK5boost6system14error_category12std_category10equivalentEiRKSt15error_condition
FNDA:0,_ZNK5boost6system14error_category12std_category10equivalentERKSt10error_codei
FNF:17
FNH:0
DA:229,0
DA:241,0
DA:243,0
DA:246,0
DA:248,0
DA:265,0
DA:270,0
DA:332,0
DA:334,0
DA:476,0
DA:478,0
DA:527,0
DA:528,0
DA:562,0
DA:563,0
DA:610,0
DA:612,0
DA:637,0
DA:638,0
DA:670,0
DA:674,0
DA:863,0
DA:866,0
DA:869,0
DA:872,0
DA:874,0
DA:875,0
DA:877,0
DA:878,0
DA:881,0
DA:883,0
DA:886,0
DA:887,0
DA:889,0
DA:890,0
DA:895,0
DA:899,0
DA:902,0
DA:904,0
DA:905,0
DA:907,0
DA:908,0
DA:911,0
DA:913,0
DA:916,0
DA:917,0
DA:919,0
DA:920,0
DA:923,0
DA:925,0
DA:929,0
LF:51
LH:0
end_of_record
SF:/usr/local/include/boost/system/system_error.hpp
FN:22,_ZN5boost6system12system_errorC2ERKS1_
FN:33,_ZN5boost6system12system_errorC2ENS0_10error_codeEPKc
FN:47,_ZN5boost6system12system_errorD0Ev
FN:47,_ZN5boost6system12system_errorD2Ev
FN:59,_ZNK5boost6system12system_error4whatEv
FNDA:0,_ZN5boost6system12system_errorC2ERKS1_
FNDA:0,_ZN5boost6system12system_errorC2ENS0_10error_codeEPKc
FNDA:0,_ZN5boost6system12system_errorD0Ev
FNDA:0,_ZN5boost6system12system_errorD2Ev
FNDA:0,_ZNK5boost6system12system_error4whatEv
FNF:5
FNH:0
DA:22,0
DA:33,0
DA:34,0
DA:47,0
DA:59,0
DA:62,0
DA:68,0
DA:69,0
DA:70,0
DA:73,0
DA:76,0
LF:11
LH:0
end_of_record
SF:/usr/local/include/boost/thread/exceptions.hpp
FN:36,_ZN5boost16thread_exceptionC2ERKS0_
FN:50,_ZN5boost16thread_exceptionC2EiPKc
FN:59,_ZN5boost16thread_exceptionD0Ev
FN:59,_ZN5boost16thread_exceptionD2Ev
FN:94,_ZN5boost10lock_errorC2ERKS0_
FN:107,_ZN5boost10lock_errorC2EiPKc
FN:116,_ZN5boost10lock_errorD2Ev
FN:116,_ZN5boost10lock_errorD0Ev
FN:121,_ZN5boost21thread_resource_errorC2ERKS0_
FN:134,_ZN5boost21thread_resource_errorC2EiPKc
FN:144,_ZN5boost21thread_resource_errorD2Ev
FN:144,_ZN5boost21thread_resource_errorD0Ev
FNDA:0,_ZN5boost16thread_exceptionC2ERKS0_
FNDA:0,_ZN5boost16thread_exceptionC2EiPKc
FNDA:0,_ZN5boost16thread_exceptionD0Ev
FNDA:0,_ZN5boost16thread_exceptionD2Ev
FNDA:0,_ZN5boost10lock_errorC2ERKS0_
FNDA:0,_ZN5boost10lock_errorC2EiPKc
FNDA:0,_ZN5boost10lock_errorD0Ev
FNDA:0,_ZN5boost10lock_errorD2Ev
FNDA:0,_ZN5boost21thread_resource_errorC2ERKS0_
FNDA:0,_ZN5boost21thread_resource_errorC2EiPKc
FNDA:0,_ZN5boost21thread_resource_errorD0Ev
FNDA:0,_ZN5boost21thread_resource_errorD2Ev
FNF:12
FNH:0
DA:36,0
DA:50,0
DA:51,0
DA:53,0
DA:59,0
DA:60,0
DA:94,0
DA:107,0
DA:108,0
DA:110,0
DA:116,0
DA:117,0
DA:121,0
DA:134,0
DA:135,0
DA:137,0
DA:144,0
DA:145,0
LF:18
LH:0
end_of_record
SF:/usr/local/include/boost/thread/lock_guard.hpp
FN:35,_ZN5boost10lock_guardINS_5mutexEEC2ERS1_
FN:65,_ZN5boost10lock_guardINS_5mutexEED2Ev
FNDA:0,_ZN5boost10lock_guardINS_5mutexEEC2ERS1_
FNDA:0,_ZN5boost10lock_guardINS_5mutexEED2Ev
FNF:2
FNH:0
DA:35,0
DA:36,0
DA:38,0
DA:39,0
DA:65,0
DA:67,0
DA:68,0
LF:7
LH:0
end_of_record
SF:/usr/local/include/boost/thread/pthread/mutex.hpp
FN:95,_ZN5boost5mutexC2Ev
FN:103,_ZN5boost5mutexD2Ev
FN:110,_ZN5boost5mutex4lockEv
FN:119,_ZN5boost5mutex6unlockEv
FNDA:0,_ZN5boost5mutexC2Ev
FNDA:0,_ZN5boost5mutexD2Ev
FNDA:0,_ZN5boost5mutex4lockEv
FNDA:0,_ZN5boost5mutex6unlockEv
FNF:4
FNH:0
DA:49,0
DA:50,0
DA:51,0
DA:58,0
DA:59,0
DA:60,0
DA:67,0
DA:68,0
DA:69,0
DA:95,0
DA:96,0
DA:97,0
DA:98,0
DA:100,0
DA:102,0
DA:103,0
DA:104,0
DA:105,0
DA:107,0
DA:108,0
DA:110,0
DA:112,0
DA:113,0
DA:115,0
DA:117,0
DA:119,0
DA:121,0
DA:123,0
DA:128,0
LF:29
LH:0
end_of_record
SF:/usr/local/include/boost/throw_exception.hpp
FN:60,_ZN5boost36throw_exception_assert_compatibilityERKSt9exception
FN:62,_ZN5boost15throw_exceptionINS_17bad_function_callEEEvRKT_
FN:62,_ZN5boost15throw_exceptionINS_21thread_resource_errorEEEvRKT_
FN:62,_ZN5boost15throw_exceptionINS_10lock_errorEEEvRKT_
FNDA:0,_ZN5boost36throw_exception_assert_compatibilityERKSt9exception
FNDA:0,_ZN5boost15throw_exceptionINS_17bad_function_callEEEvRKT_
FNDA:0,_ZN5boost15throw_exceptionINS_10lock_errorEEEvRKT_
FNDA:0,_ZN5boost15throw_exceptionINS_21thread_resource_errorEEEvRKT_
FNF:4
FNH:0
DA:60,0
DA:62,0
DA:66,0
DA:69,0
LF:4
LH:0
end_of_record
SF:/usr/local/include/boost/type_index/stl_type_index.hpp
FN:87,_ZN5boost9typeindex14stl_type_indexC2ERKSt9type_info
FN:111,_ZNK5boost9typeindex14stl_type_index9type_infoEv
FN:202,_ZNK5boost9typeindex14stl_type_index5equalERKS1_
FN:225,_ZN5boost9typeindex14stl_type_index7type_idIZN35NumberTheoryCalculatorWithContracts3mcdEiiEUlvE_EES1_v
FN:225,_ZN5boost9typeindex14stl_type_index7type_idIPFvNS_8contract4fromEEEES1_v
FN:225,_ZN5boost9typeindex14stl_type_index7type_idIZN35NumberTheoryCalculatorWithContracts3divEiiEUlvE_EES1_v
FNDA:0,_ZN5boost9typeindex14stl_type_indexC2ERKSt9type_info
FNDA:0,_ZNK5boost9typeindex14stl_type_index9type_infoEv
FNDA:0,_ZNK5boost9typeindex14stl_type_index5equalERKS1_
FNDA:0,_ZN5boost9typeindex14stl_type_index7type_idIZN35NumberTheoryCalculatorWithContracts3mcdEiiEUlvE_EES1_v
FNDA:0,_ZN5boost9typeindex14stl_type_index7type_idIZN35NumberTheoryCalculatorWithContracts3divEiiEUlvE_EES1_v
FNDA:0,_ZN5boost9typeindex14stl_type_index7type_idIPFvNS_8contract4fromEEEES1_v
FNF:6
FNH:0
DA:87,0
DA:88,0
DA:89,0
DA:111,0
DA:112,0
DA:202,0
DA:206,0
DA:225,0
DA:245,0
LF:9
LH:0
end_of_record
SF:/usr/local/include/boost/type_index/type_index_facade.hpp
FN:154,_ZN5boost9typeindexeqINS0_14stl_type_indexESt9type_infoEEbRKNS0_17type_index_facadeIT_T0_EES9_
FN:187,_ZN5boost9typeindexeqINS0_14stl_type_indexESt9type_infoEEbRKT0_RKNS0_17type_index_facadeIT_S4_EE
FNDA:0,_ZN5boost9typeindexeqINS0_14stl_type_indexESt9type_infoEEbRKNS0_17type_index_facadeIT_T0_EES9_
FNDA:0,_ZN5boost9typeindexeqINS0_14stl_type_indexESt9type_infoEEbRKT0_RKNS0_17type_index_facadeIT_S4_EE
FNF:2
FNH:0
DA:154,0
DA:155,0
DA:187,0
DA:188,0
LF:4
LH:0
end_of_record
SF:/usr/local/include/boost/type_index.hpp
FN:211,_ZN5boost9typeindex7type_idIZN35NumberTheoryCalculatorWithContracts3divEiiEUlvE_EENS0_14stl_type_indexEv
FN:211,_ZN5boost9typeindex7type_idIZN35NumberTheoryCalculatorWithContracts3mcdEiiEUlvE_EENS0_14stl_type_indexEv
FN:211,_ZN5boost9typeindex7type_idIPFvNS_8contract4fromEEEENS0_14stl_type_indexEv
FNDA:0,_ZN5boost9typeindex7type_idIZN35NumberTheoryCalculatorWithContracts3mcdEiiEUlvE_EENS0_14stl_type_indexEv
FNDA:0,_ZN5boost9typeindex7type_idIZN35NumberTheoryCalculatorWithContracts3divEiiEUlvE_EENS0_14stl_type_indexEv
FNDA:0,_ZN5boost9typeindex7type_idIPFvNS_8contract4fromEEEENS0_14stl_type_indexEv
FNF:3
FNH:0
DA:211,0
DA:212,0
LF:2
LH:0
end_of_record
TN:
SF:/home/carlos/CLionProjects/PruebaTest/test/TestContracts.cpp
FN:13,_ZN1FC2Ev
FN:17,_ZZN1FC4EvENKUlN5boost8contract4fromEE_clES2_
FN:17,_ZZN1FC4EvENUlN5boost8contract4fromEE_4_FUNES2_
FN:25,_ZZN1FC4EvENKUlN5boost8contract4fromEE0_clES2_
FN:25,_ZZN1FC4EvENUlN5boost8contract4fromEE0_4_FUNES2_
FN:31,_ZZN1FC4EvENKUlvE1_clEv
FN:31,_ZZN1FC4EvENUlvE1_4_FUNEv
FN:36,_ZN1FD2Ev
FN:48,_ZN34number_theory_with_contracts_suite26parametrized_sign_testcase5_implIiiEEvRKT_RKT0_
FN:48,_ZN34number_theory_with_contracts_suite26parametrized_sign_testcase11test_methodIRKiS3_EEvRKT_RKT0_
FN:60,_ZN34number_theory_with_contracts_suite32check_incorrect_precondition_div11test_methodEv
FN:60,_ZN34number_theory_with_contracts_suiteL40check_incorrect_precondition_div_invokerEv
FN:72,_ZN34number_theory_with_contracts_suite25parametrized_div_testcase11test_methodIRKiS3_EEvRKT_RKT0_
FN:72,_ZN34number_theory_with_contracts_suite25parametrized_div_testcase5_implIiiEEvRKT_RKT0_
FN:88,_ZN34number_theory_with_contracts_suite25parametrized_mcd_testcase5_implIiiEEvRKT_RKT0_
FN:88,_ZN34number_theory_with_contracts_suite25parametrized_mcd_testcase11test_methodIRKiS3_EEvRKT_RKT0_
FN:103,_ZN34number_theory_with_contracts_suite25parametrized_mcm_testcase5_implIiiEEvRKT_RKT0_
FN:103,_ZN34number_theory_with_contracts_suite25parametrized_mcm_testcase11test_methodIRKiS3_EEvRKT_RKT0_
FN:115,_ZN34number_theory_with_contracts_suite32check_incorrect_precondition_mcd11test_methodEv
FN:115,_ZN34number_theory_with_contracts_suiteL40check_incorrect_precondition_mcd_invokerEv
FN:124,_ZN34number_theory_with_contracts_suite32check_incorrect_precondition_mcm11test_methodEv
FN:124,_ZN34number_theory_with_contracts_suiteL40check_incorrect_precondition_mcm_invokerEv
FN:133,_GLOBAL__sub_I__Z14init_unit_testv
FN:133,_Z41__static_initialization_and_destruction_0ii
FNDA:1,_ZN1FC2Ev
FNDA:0,_ZZN1FC4EvENUlN5boost8contract4fromEE_4_FUNES2_
FNDA:3,_ZZN1FC4EvENKUlN5boost8contract4fromEE_clES2_
FNDA:0,_ZZN1FC4EvENUlN5boost8contract4fromEE0_4_FUNES2_
FNDA:0,_ZZN1FC4EvENKUlN5boost8contract4fromEE0_clES2_
FNDA:0,_ZZN1FC4EvENUlvE1_4_FUNEv
FNDA:0,_ZZN1FC4EvENKUlvE1_clEv
FNDA:1,_ZN1FD2Ev
FNDA:3,_ZN34number_theory_with_contracts_suite26parametrized_sign_testcase5_implIiiEEvRKT_RKT0_
FNDA:3,_ZN34number_theory_with_contracts_suite26parametrized_sign_testcase11test_methodIRKiS3_EEvRKT_RKT0_
FNDA:1,_ZN34number_theory_with_contracts_suite32check_incorrect_precondition_div11test_methodEv
FNDA:1,_ZN34number_theory_with_contracts_suiteL40check_incorrect_precondition_div_invokerEv
FNDA:6,_ZN34number_theory_with_contracts_suite25parametrized_div_testcase5_implIiiEEvRKT_RKT0_
FNDA:6,_ZN34number_theory_with_contracts_suite25parametrized_div_testcase11test_methodIRKiS3_EEvRKT_RKT0_
FNDA:9,_ZN34number_theory_with_contracts_suite25parametrized_mcd_testcase5_implIiiEEvRKT_RKT0_
FNDA:9,_ZN34number_theory_with_contracts_suite25parametrized_mcd_testcase11test_methodIRKiS3_EEvRKT_RKT0_
FNDA:9,_ZN34number_theory_with_contracts_suite25parametrized_mcm_testcase5_implIiiEEvRKT_RKT0_
FNDA:9,_ZN34number_theory_with_contracts_suite25parametrized_mcm_testcase11test_methodIRKiS3_EEvRKT_RKT0_
FNDA:1,_ZN34number_theory_with_contracts_suite32check_incorrect_precondition_mcd11test_methodEv
FNDA:1,_ZN34number_theory_with_contracts_suiteL40check_incorrect_precondition_mcd_invokerEv
FNDA:1,_ZN34number_theory_with_contracts_suite32check_incorrect_precondition_mcm11test_methodEv
FNDA:1,_ZN34number_theory_with_contracts_suiteL40check_incorrect_precondition_mcm_invokerEv
FNDA:1,_GLOBAL__sub_I__Z14init_unit_testv
FNDA:1,_Z41__static_initialization_and_destruction_0ii
FNF:24
FNH:19
DA:13,2
DA:17,3
DA:18,3
DA:20,0
DA:21,3
DA:22,0
DA:23,2
DA:24,1
DA:25,0
DA:27,0
DA:28,0
DA:29,2
DA:30,1
DA:31,0
DA:33,0
DA:34,0
DA:35,2
DA:36,1
DA:41,1
DA:43,1
DA:48,7
DA:51,6
DA:54,3
DA:57,3
DA:58,3
DA:60,3
DA:62,2
DA:63,1
DA:64,1
DA:66,1
DA:67,1
DA:72,13
DA:75,12
DA:78,6
DA:79,6
DA:82,6
DA:83,6
DA:88,19
DA:91,18
DA:94,9
DA:97,9
DA:98,9
DA:103,19
DA:106,18
DA:109,9
DA:112,9
DA:113,9
DA:115,3
DA:117,2
DA:118,1
DA:119,1
DA:121,1
DA:122,1
DA:124,3
DA:126,2
DA:127,1
DA:128,1
DA:130,1
DA:131,1
DA:133,3
LF:60
LH:52
end_of_record
SF:/usr/include/c++/7/atomic
FN:672,_ZNSt6atomicIiEC2Ei
FNDA:8,_ZNSt6atomicIiEC2Ei
FNF:1
FNH:1
DA:672,8
LF:1
LH:1
end_of_record
SF:/usr/include/c++/7/bits/alloc_traits.h
FN:435,_ZNSt16allocator_traitsISaISt10_List_nodeIPN5boost9unit_test9test_unitEEEE8allocateERS6_m
FN:435,_ZNSt16allocator_traitsISaISt13_Rb_tree_nodeISt4pairIKN5boost16exception_detail10type_info_ENS2_10shared_ptrINS3_15error_info_baseEEEEEEE8allocateERSB_m
FN:461,_ZNSt16allocator_traitsISaIN5boost10shared_ptrINS0_9unit_test9decorator4baseEEEEE10deallocateERS6_PS5_m
FN:461,_ZNSt16allocator_traitsISaISt13_Rb_tree_nodeISt4pairIKN5boost16exception_detail10type_info_ENS2_10shared_ptrINS3_15error_info_baseEEEEEEE10deallocateERSB_PSA_m
FN:461,_ZNSt16allocator_traitsISaISt10_List_nodeIPN5boost9unit_test9test_unitEEEE10deallocateERS6_PS5_m
FN:474,_ZNSt16allocator_traitsISaISt13_Rb_tree_nodeISt4pairIKN5boost16exception_detail10type_info_ENS2_10shared_ptrINS3_15error_info_baseEEEEEEE9constructIS9_JS1_IS4_S8_EEEEvRSB_PT_DpOT0_
FN:474,_ZNSt16allocator_traitsISaISt13_Rb_tree_nodeISt4pairIKN5boost16exception_detail10type_info_ENS2_10shared_ptrINS3_15error_info_baseEEEEEEE9constructIS9_JRKSt21piecewise_construct_tSt5tupleIJRS5_EESH_IJEEEEEvRSB_PT_DpOT0_
FN:474,_ZNSt16allocator_traitsISaISt10_List_nodeIPN5boost9unit_test9test_unitEEEE9constructIS4_JS4_EEEvRS6_PT_DpOT0_
FN:486,_ZNSt16allocator_traitsISaISt10_List_nodeIPN5boost9unit_test9test_unitEEEE7destroyIS4_EEvRS6_PT_
FN:486,_ZNSt16allocator_traitsISaISt13_Rb_tree_nodeISt4pairIKN5boost16exception_detail10type_info_ENS2_10shared_ptrINS3_15error_info_baseEEEEEEE7destroyIS9_EEvRSB_PT_
FNDA:27,_ZNSt16allocator_traitsISaISt10_List_nodeIPN5boost9unit_test9test_unitEEEE8allocateERS6_m
FNDA:0,_ZNSt16allocator_traitsISaISt13_Rb_tree_nodeISt4pairIKN5boost16exception_detail10type_info_ENS2_10shared_ptrINS3_15error_info_baseEEEEEEE8allocateERSB_m
FNDA:0,_ZNSt16allocator_traitsISaISt13_Rb_tree_nodeISt4pairIKN5boost16exception_detail10type_info_ENS2_10shared_ptrINS3_15error_info_baseEEEEEEE10deallocateERSB_PSA_m
FNDA:27,_ZNSt16allocator_traitsISaISt10_List_nodeIPN5boost9unit_test9test_unitEEEE10deallocateERS6_PS5_m
FNDA:0,_ZNSt16allocator_traitsISaIN5boost10shared_ptrINS0_9unit_test9decorator4baseEEEEE10deallocateERS6_PS5_m
FNDA:27,_ZNSt16allocator_traitsISaISt10_List_nodeIPN5boost9unit_test9test_unitEEEE9constructIS4_JS4_EEEvRS6_PT_DpOT0_
FNDA:0,_ZNSt16allocator_traitsISaISt13_Rb_tree_nodeISt4pairIKN5boost16exception_detail10type_info_ENS2_10shared_ptrINS3_15error_info_baseEEEEEEE9constructIS9_JS1_IS4_S8_EEEEvRSB_PT_DpOT0_
FNDA:0,_ZNSt16allocator_traitsISaISt13_Rb_tree_nodeISt4pairIKN5boost16exception_detail10type_info_ENS2_10shared_ptrINS3_15error_info_baseEEEEEEE9constructIS9_JRKSt21piecewise_construct_tSt5tupleIJRS5_EESH_IJEEEEEvRSB_PT_DpOT0_
FNDA:0,_ZNSt16allocator_traitsISaISt13_Rb_tree_nodeISt4pairIKN5boost16exception_detail10type_info_ENS2_10shared_ptrINS3_15error_info_baseEEEEEEE7destroyIS9_EEvRSB_PT_
FNDA:27,_ZNSt16allocator_traitsISaISt10_List_nodeIPN5boost9unit_test9test_unitEEEE7destroyIS4_EEvRS6_PT_
FNF:10
FNH:4
DA:435,27
DA:436,27
DA:461,27
DA:462,27
DA:474,27
DA:475,27
DA:486,27
DA:487,27
LF:8
LH:8
end_of_record
SF:/usr/include/c++/7/bits/allocated_ptr.h
FN:52,_ZNSt15__allocated_ptrISaISt10_List_nodeIPN5boost9unit_test9test_unitEEEEC2ERS6_PS5_
FN:70,_ZNSt15__allocated_ptrISaISt10_List_nodeIPN5boost9unit_test9test_unitEEEED2Ev
FN:78,_ZNSt15__allocated_ptrISaISt10_List_nodeIPN5boost9unit_test9test_unitEEEEaSEDn
FNDA:27,_ZNSt15__allocated_ptrISaISt10_List_nodeIPN5boost9unit_test9test_unitEEEEC2ERS6_PS5_
FNDA:27,_ZNSt15__allocated_ptrISaISt10_List_nodeIPN5boost9unit_test9test_unitEEEED2Ev
FNDA:27,_ZNSt15__allocated_ptrISaISt10_List_nodeIPN5boost9unit_test9test_unitEEEEaSEDn
FNF:3
FNH:3
DA:52,27
DA:53,27
DA:54,27
DA:70,27
DA:72,27
DA:73,0
DA:74,27
DA:78,27
DA:80,27
DA:81,27
LF:10
LH:9
end_of_record
SF:/usr/include/c++/7/bits/allocator.h
FN:131,_ZNSaISt13_Rb_tree_nodeISt4pairIKN5boost16exception_detail10type_info_ENS1_10shared_ptrINS2_15error_info_baseEEEEEEC2Ev
FN:131,_ZNSaIN5boost10shared_ptrINS_9unit_test9decorator4baseEEEEC2Ev
FN:131,_ZNSaISt10_List_nodeIPN5boost9unit_test9test_unitEEEC2Ev
FN:139,_ZNSaIN5boost10shared_ptrINS_9unit_test9decorator4baseEEEED2Ev
FN:139,_ZNSaISt13_Rb_tree_nodeISt4pairIKN5boost16exception_detail10type_info_ENS1_10shared_ptrINS2_15error_info_baseEEEEEED2Ev
FN:139,_ZNSaISt10_List_nodeIPN5boost9unit_test9test_unitEEED2Ev
FNDA:4,_ZNSaISt10_List_nodeIPN5boost9unit_test9test_unitEEEC2Ev
FNDA:1,_ZNSaIN5boost10shared_ptrINS_9unit_test9decorator4baseEEEEC2Ev
FNDA:0,_ZNSaISt13_Rb_tree_nodeISt4pairIKN5boost16exception_detail10type_info_ENS1_10shared_ptrINS2_15error_info_baseEEEEEEC2Ev
FNDA:4,_ZNSaISt10_List_nodeIPN5boost9unit_test9test_unitEEED2Ev
FNDA:1,_ZNSaIN5boost10shared_ptrINS_9unit_test9decorator4baseEEEED2Ev
FNDA:0,_ZNSaISt13_Rb_tree_nodeISt4pairIKN5boost16exception_detail10type_info_ENS1_10shared_ptrINS2_15error_info_baseEEEEEED2Ev
FNF:6
FNH:4
DA:131,5
DA:139,5
LF:2
LH:2
end_of_record
SF:/usr/include/c++/7/bits/atomic_base.h
FN:256,_ZNSt13__atomic_baseIiEC2Ei
FNDA:8,_ZNSt13__atomic_baseIiEC2Ei
FNF:1
FNH:1
DA:256,8
DA:514,0
DA:524,624
LF:3
LH:2
end_of_record
SF:/usr/include/c++/7/bits/basic_string.h
FN:5968,_ZStplIcSt11char_traitsIcESaIcEENSt7__cxx1112basic_stringIT_T0_T1_EEPKS5_OS8_
FNDA:27,_ZStplIcSt11char_traitsIcESaIcEENSt7__cxx1112basic_stringIT_T0_T1_EEPKS5_OS8_
FNF:1
FNH:1
DA:5968,27
DA:5970,27
LF:2
LH:2
end_of_record
SF:/usr/include/c++/7/bits/invoke.h
FN:59,_ZSt13__invoke_implIvRPFvRKiS1_EJRiS5_EET_St14__invoke_otherOT0_DpOT1_
FN:89,_ZSt8__invokeIRPFvRKiS1_EJRiS5_EENSt15__invoke_resultIT_JDpT0_EE4typeEOS7_DpOS8_
FNDA:27,_ZSt13__invoke_implIvRPFvRKiS1_EJRiS5_EET_St14__invoke_otherOT0_DpOT1_
FNDA:27,_ZSt8__invokeIRPFvRKiS1_EJRiS5_EENSt15__invoke_resultIT_JDpT0_EE4typeEOS7_DpOS8_
FNF:2
FNH:2
DA:59,27
DA:60,27
DA:89,27
DA:95,27
DA:96,27
LF:5
LH:5
end_of_record
SF:/usr/include/c++/7/bits/ios_base.h
FN:698,_ZNSt8ios_base9precisionEl
FNDA:108,_ZNSt8ios_base9precisionEl
FNF:1
FNH:1
DA:698,108
DA:700,108
DA:701,108
DA:702,108
LF:4
LH:4
end_of_record
SF:/usr/include/c++/7/bits/list.tcc
FN:65,_ZNSt7__cxx1110_List_baseIPN5boost9unit_test9test_unitESaIS4_EE8_M_clearEv
FNDA:4,_ZNSt7__cxx1110_List_baseIPN5boost9unit_test9test_unitESaIS4_EE8_M_clearEv
FNF:1
FNH:1
DA:65,4
DA:69,4
DA:70,4
DA:72,0
DA:73,0
DA:74,0
DA:76,0
DA:80,0
DA:82,4
LF:9
LH:4
end_of_record
SF:/usr/include/c++/7/bits/move.h
FN:47,_ZSt11__addressofISaISt10_List_nodeIPN5boost9unit_test9test_unitEEEEPT_RS7_
FN:47,_ZSt11__addressofIN5boost10shared_ptrINS0_9unit_test9decorator4baseEEEEPT_RS6_
FN:73,_ZSt7forwardISt5tupleIJEEEOT_RNSt16remove_referenceIS2_E4typeE
FN:73,_ZSt7forwardIRKN5boost16exception_detail10type_info_EEOT_RNSt16remove_referenceIS5_E4typeE
FN:73,_ZSt7forwardIN5boost16exception_detail10type_info_EEOT_RNSt16remove_referenceIS3_E4typeE
FN:73,_ZSt7forwardIRiEOT_RNSt16remove_referenceIS1_E4typeE
FN:73,_ZSt7forwardIN5boost9unit_test4data11monomorphic5arrayIiEEEOT_RNSt16remove_referenceIS6_E4typeE
FN:73,_ZSt7forwardIRPSt18_Rb_tree_node_baseEOT_RNSt16remove_referenceIS3_E4typeE
FN:73,_ZSt7forwardIRPFvRKiS1_EEOT_RNSt16remove_referenceIS5_E4typeE
FN:73,_ZSt7forwardIbEOT_RNSt16remove_referenceIS0_E4typeE
FN:73,_ZSt7forwardIN5boost10shared_ptrINS0_16exception_detail15error_info_baseEEEEOT_RNSt16remove_referenceIS5_E4typeE
FN:73,_ZSt7forwardIN5boost9unit_test4data11monomorphic4gridINS3_5arrayIiEES6_EEEOT_RNSt16remove_referenceIS8_E4typeE
FN:73,_ZSt7forwardISt5tupleIJRKN5boost16exception_detail10type_info_EEEEOT_RNSt16remove_referenceIS7_E4typeE
FN:73,_ZSt7forwardISt17_Rb_tree_iteratorISt4pairIKN5boost16exception_detail10type_info_ENS2_10shared_ptrINS3_15error_info_baseEEEEEEOT_RNSt16remove_referenceISB_E4typeE
FN:73,_ZSt7forwardIRA3_KiEOT_RNSt16remove_referenceIS3_E4typeE
FN:73,_ZSt7forwardISt5tupleIJRKiEEEOT_RNSt16remove_referenceIS4_E4typeE
FN:73,_ZSt7forwardIRKSt21piecewise_construct_tEOT_RNSt16remove_referenceIS3_E4typeE
FN:73,_ZSt7forwardIRPSt13_Rb_tree_nodeISt4pairIKN5boost16exception_detail10type_info_ENS2_10shared_ptrINS3_15error_info_baseEEEEEEOT_RNSt16remove_referenceISD_E4typeE
FN:73,_ZSt7forwardISt5tupleIJRKiS2_EEEOT_RNSt16remove_referenceIS4_E4typeE
FN:73,_ZSt7forwardIN5boost9unit_test4data11monomorphic3zipINS3_5arrayIiEES6_EEEOT_RNSt16remove_referenceIS8_E4typeE
FN:73,_ZSt7forwardIPN5boost9unit_test9test_unitEEOT_RNSt16remove_referenceIS4_E4typeE
FN:73,_ZSt7forwardIRKiEOT_RNSt16remove_referenceIS2_E4typeE
FN:73,_ZSt7forwardIRN5boost10shared_ptrINS0_16exception_detail15error_info_baseEEEEOT_RNSt16remove_referenceIS6_E4typeE
FN:73,_ZSt7forwardIPFvRKiS1_EEOT_RNSt16remove_referenceIS4_E4typeE
FN:73,_ZSt7forwardISt4pairIN5boost16exception_detail10type_info_ENS1_10shared_ptrINS2_15error_info_baseEEEEEOT_RNSt16remove_referenceIS8_E4typeE
FN:98,_ZSt4moveIRPN5boost16exception_detail15error_info_baseEEONSt16remove_referenceIT_E4typeEOS6_
FN:98,_ZSt4moveIRPN5boost9unit_test9test_unitEEONSt16remove_referenceIT_E4typeEOS6_
FN:98,_ZSt4moveIPKiEONSt16remove_referenceIT_E4typeEOS3_
FN:98,_ZSt4moveIRNSt7__cxx1112basic_stringIcSt11char_traitsIcESaIcEEEEONSt16remove_referenceIT_E4typeEOS8_
FN:98,_ZSt4moveIRPKiEONSt16remove_referenceIT_E4typeEOS4_
FN:98,_ZSt4moveIRPFvRKiS1_EEONSt16remove_referenceIT_E4typeEOS6_
FN:187,_ZSt4swapIPN5boost16exception_detail15error_info_baseEENSt9enable_ifIXsrSt6__and_IJSt6__not_ISt15__is_tuple_likeIT_EESt21is_move_constructibleIS8_ESt18is_move_assignableIS8_EEE5valueEvE4typeERS8_SI_
FNDA:27,_ZSt11__addressofISaISt10_List_nodeIPN5boost9unit_test9test_unitEEEEPT_RS7_
FNDA:0,_ZSt11__addressofIN5boost10shared_ptrINS0_9unit_test9decorator4baseEEEEPT_RS6_
FNDA:162,_ZSt7forwardIRiEOT_RNSt16remove_referenceIS1_E4typeE
FNDA:54,_ZSt7forwardIRPFvRKiS1_EEOT_RNSt16remove_referenceIS5_E4typeE
FNDA:108,_ZSt7forwardIPN5boost9unit_test9test_unitEEOT_RNSt16remove_referenceIS4_E4typeE
FNDA:27,_ZSt7forwardIPFvRKiS1_EEOT_RNSt16remove_referenceIS4_E4typeE
FNDA:135,_ZSt7forwardISt5tupleIJRKiEEEOT_RNSt16remove_referenceIS4_E4typeE
FNDA:81,_ZSt7forwardISt5tupleIJRKiS2_EEEOT_RNSt16remove_referenceIS4_E4typeE
FNDA:0,_ZSt7forwardIN5boost10shared_ptrINS0_16exception_detail15error_info_baseEEEEOT_RNSt16remove_referenceIS5_E4typeE
FNDA:0,_ZSt7forwardIN5boost16exception_detail10type_info_EEOT_RNSt16remove_referenceIS3_E4typeE
FNDA:0,_ZSt7forwardIbEOT_RNSt16remove_referenceIS0_E4typeE
FNDA:0,_ZSt7forwardISt17_Rb_tree_iteratorISt4pairIKN5boost16exception_detail10type_info_ENS2_10shared_ptrINS3_15error_info_baseEEEEEEOT_RNSt16remove_referenceISB_E4typeE
FNDA:0,_ZSt7forwardIRPSt13_Rb_tree_nodeISt4pairIKN5boost16exception_detail10type_info_ENS2_10shared_ptrINS3_15error_info_baseEEEEEEOT_RNSt16remove_referenceISD_E4typeE
FNDA:0,_ZSt7forwardIRPSt18_Rb_tree_node_baseEOT_RNSt16remove_referenceIS3_E4typeE
FNDA:0,_ZSt7forwardISt5tupleIJEEEOT_RNSt16remove_referenceIS2_E4typeE
FNDA:0,_ZSt7forwardISt5tupleIJRKN5boost16exception_detail10type_info_EEEEOT_RNSt16remove_referenceIS7_E4typeE
FNDA:0,_ZSt7forwardIRKSt21piecewise_construct_tEOT_RNSt16remove_referenceIS3_E4typeE
FNDA:12,_ZSt7forwardIN5boost9unit_test4data11monomorphic4gridINS3_5arrayIiEES6_EEEOT_RNSt16remove_referenceIS8_E4typeE
FNDA:2,_ZSt7forwardIN5boost9unit_test4data11monomorphic3zipINS3_5arrayIiEES6_EEEOT_RNSt16remove_referenceIS8_E4typeE
FNDA:4,_ZSt7forwardIRA3_KiEOT_RNSt16remove_referenceIS3_E4typeE
FNDA:36,_ZSt7forwardIN5boost9unit_test4data11monomorphic5arrayIiEEEOT_RNSt16remove_referenceIS6_E4typeE
FNDA:0,_ZSt7forwardISt4pairIN5boost16exception_detail10type_info_ENS1_10shared_ptrINS2_15error_info_baseEEEEEOT_RNSt16remove_referenceIS8_E4typeE
FNDA:0,_ZSt7forwardIRN5boost10shared_ptrINS0_16exception_detail15error_info_baseEEEEOT_RNSt16remove_referenceIS6_E4typeE
FNDA:0,_ZSt7forwardIRKN5boost16exception_detail10type_info_EEOT_RNSt16remove_referenceIS5_E4typeE
FNDA:675,_ZSt7forwardIRKiEOT_RNSt16remove_referenceIS2_E4typeE
FNDA:27,_ZSt4moveIRPFvRKiS1_EEONSt16remove_referenceIT_E4typeEOS6_
FNDA:27,_ZSt4moveIRPN5boost9unit_test9test_unitEEONSt16remove_referenceIT_E4typeEOS6_
FNDA:5,_ZSt4moveIRPKiEONSt16remove_referenceIT_E4typeEOS4_
FNDA:11,_ZSt4moveIPKiEONSt16remove_referenceIT_E4typeEOS3_
FNDA:0,_ZSt4moveIRPN5boost16exception_detail15error_info_baseEEONSt16remove_referenceIT_E4typeEOS6_
FNDA:27,_ZSt4moveIRNSt7__cxx1112basic_stringIcSt11char_traitsIcESaIcEEEEONSt16remove_referenceIT_E4typeEOS8_
FNDA:0,_ZSt4swapIPN5boost16exception_detail15error_info_baseEENSt9enable_ifIXsrSt6__and_IJSt6__not_ISt15__is_tuple_likeIT_EESt21is_move_constructibleIS8_ESt18is_move_assignableIS8_EEE5valueEvE4typeERS8_SI_
FNF:32
FNH:17
DA:47,27
DA:48,27
DA:73,1296
DA:74,1296
DA:98,97
DA:99,97
DA:187,0
DA:198,0
DA:199,0
DA:200,0
DA:201,0
LF:11
LH:6
end_of_record
SF:/usr/include/c++/7/bits/stl_algobase.h
FN:195,_ZSt3minIN5boost9unit_test4data6size_tEERKT_S6_S6_
FNDA:4,_ZSt3minIN5boost9unit_test4data6size_tEERKT_S6_S6_
FNF:1
FNH:1
DA:195,4
DA:200,4
DA:201,0
DA:202,4
LF:4
LH:3
end_of_record
SF:/usr/include/c++/7/bits/stl_construct.h
FN:97,_ZSt8_DestroyIN5boost10shared_ptrINS0_9unit_test9decorator4baseEEEEvPT_
FN:105,_ZNSt12_Destroy_auxILb0EE9__destroyIPN5boost10shared_ptrINS2_9unit_test9decorator4baseEEEEEvT_S9_
FN:127,_ZSt8_DestroyIPN5boost10shared_ptrINS0_9unit_test9decorator4baseEEEEvT_S7_
FN:203,_ZSt8_DestroyIPN5boost10shared_ptrINS0_9unit_test9decorator4baseEEES5_EvT_S7_RSaIT0_E
FNDA:0,_ZSt8_DestroyIN5boost10shared_ptrINS0_9unit_test9decorator4baseEEEEvPT_
FNDA:1,_ZNSt12_Destroy_auxILb0EE9__destroyIPN5boost10shared_ptrINS2_9unit_test9decorator4baseEEEEEvT_S9_
FNDA:1,_ZSt8_DestroyIPN5boost10shared_ptrINS0_9unit_test9decorator4baseEEEEvT_S7_
FNDA:1,_ZSt8_DestroyIPN5boost10shared_ptrINS0_9unit_test9decorator4baseEEES5_EvT_S7_RSaIT0_E
FNF:4
FNH:3
DA:97,0
DA:98,0
DA:105,1
DA:107,1
DA:108,0
DA:109,1
DA:127,1
DA:137,1
DA:138,1
DA:203,1
DA:206,1
DA:207,1
LF:12
LH:9
end_of_record
SF:/usr/include/c++/7/bits/stl_function.h
FN:385,_ZNKSt4lessIN5boost16exception_detail10type_info_EEclERKS2_S5_
FN:890,_ZNKSt10_Select1stISt4pairIKN5boost16exception_detail10type_info_ENS1_10shared_ptrINS2_15error_info_baseEEEEEclERKS8_
FN:896,_ZNKSt10_Select1stISt4pairIKN5boost16exception_detail10type_info_ENS1_10shared_ptrINS2_15error_info_baseEEEEEclIS0_IS3_S7_EEERNT_10first_typeERSC_
FNDA:0,_ZNKSt4lessIN5boost16exception_detail10type_info_EEclERKS2_S5_
FNDA:0,_ZNKSt10_Select1stISt4pairIKN5boost16exception_detail10type_info_ENS1_10shared_ptrINS2_15error_info_baseEEEEEclERKS8_
FNDA:0,_ZNKSt10_Select1stISt4pairIKN5boost16exception_detail10type_info_ENS1_10shared_ptrINS2_15error_info_baseEEEEEclIS0_IS3_S7_EEERNT_10first_typeERSC_
FNF:3
FNH:0
DA:385,0
DA:386,0
DA:890,0
DA:891,0
DA:896,0
DA:897,0
LF:6
LH:0
end_of_record
SF:/usr/include/c++/7/bits/stl_list.h
FN:113,_ZNSt10_List_nodeImE9_M_valptrEv
FN:113,_ZNSt10_List_nodeIPN5boost9unit_test9test_unitEE9_M_valptrEv
FN:143,_ZNSt14_List_iteratorIPN5boost9unit_test9test_unitEEC2EPNSt8__detail15_List_node_baseE
FN:152,_ZNKSt14_List_iteratorIPN5boost9unit_test9test_unitEEdeEv
FN:323,_ZNSt7__cxx1110_List_baseIPN5boost9unit_test9test_unitESaIS4_EE10_List_implD2Ev
FN:332,_ZNSt7__cxx1110_List_baseIPN5boost9unit_test9test_unitESaIS4_EE10_List_implC2Ev
FN:352,_ZNSt7__cxx1110_List_baseIPN5boost9unit_test9test_unitESaIS4_EE11_M_set_sizeEm
FN:354,_ZNSt7__cxx1110_List_baseIPN5boost9unit_test9test_unitESaIS4_EE11_M_inc_sizeEm
FN:356,_ZNSt7__cxx1110_List_baseIPN5boost9unit_test9test_unitESaIS4_EE11_M_dec_sizeEm
FN:382,_ZNSt7__cxx1110_List_baseIPN5boost9unit_test9test_unitESaIS4_EE11_M_get_nodeEv
FN:386,_ZNSt7__cxx1110_List_baseIPN5boost9unit_test9test_unitESaIS4_EE11_M_put_nodeEPSt10_List_nodeIS4_E
FN:393,_ZNSt7__cxx1110_List_baseIPN5boost9unit_test9test_unitESaIS4_EE21_M_get_Node_allocatorEv
FN:400,_ZNSt7__cxx1110_List_baseIPN5boost9unit_test9test_unitESaIS4_EEC2Ev
FN:441,_ZNSt7__cxx1110_List_baseIPN5boost9unit_test9test_unitESaIS4_EED2Ev
FN:448,_ZNSt7__cxx1110_List_baseIPN5boost9unit_test9test_unitESaIS4_EE7_M_initEv
FN:570,_ZNSt7__cxx114listIPN5boost9unit_test9test_unitESaIS4_EE14_M_create_nodeIJS4_EEEPSt10_List_nodeIS4_EDpOT_
FN:589,_ZNSt7__cxx114listIPN5boost9unit_test9test_unitESaIS4_EEC2Ev
FN:733,_ZNSt7__cxx114listIPN5boost9unit_test9test_unitESaIS4_EED2Ev
FN:851,_ZNSt7__cxx114listIPN5boost9unit_test9test_unitESaIS4_EE5beginEv
FN:869,_ZNSt7__cxx114listIPN5boost9unit_test9test_unitESaIS4_EE3endEv
FN:961,_ZNKSt7__cxx114listIPN5boost9unit_test9test_unitESaIS4_EE5emptyEv
FN:1020,_ZNSt7__cxx114listIPN5boost9unit_test9test_unitESaIS4_EE5frontEv
FN:1103,_ZNSt7__cxx114listIPN5boost9unit_test9test_unitESaIS4_EE9pop_frontEv
FN:1122,_ZNSt7__cxx114listIPN5boost9unit_test9test_unitESaIS4_EE9push_backEOS4_
FN:1799,_ZNSt7__cxx114listIPN5boost9unit_test9test_unitESaIS4_EE9_M_insertIJS4_EEEvSt14_List_iteratorIS4_EDpOT_
FN:1809,_ZNSt7__cxx114listIPN5boost9unit_test9test_unitESaIS4_EE8_M_eraseESt14_List_iteratorIS4_E
FNDA:58,_ZNSt10_List_nodeImE9_M_valptrEv
FNDA:81,_ZNSt10_List_nodeIPN5boost9unit_test9test_unitEE9_M_valptrEv
FNDA:81,_ZNSt14_List_iteratorIPN5boost9unit_test9test_unitEEC2EPNSt8__detail15_List_node_baseE
FNDA:27,_ZNKSt14_List_iteratorIPN5boost9unit_test9test_unitEEdeEv
FNDA:4,_ZNSt7__cxx1110_List_baseIPN5boost9unit_test9test_unitESaIS4_EE10_List_implD2Ev
FNDA:4,_ZNSt7__cxx1110_List_baseIPN5boost9unit_test9test_unitESaIS4_EE10_List_implC2Ev
FNDA:4,_ZNSt7__cxx1110_List_baseIPN5boost9unit_test9test_unitESaIS4_EE11_M_set_sizeEm
FNDA:27,_ZNSt7__cxx1110_List_baseIPN5boost9unit_test9test_unitESaIS4_EE11_M_inc_sizeEm
FNDA:27,_ZNSt7__cxx1110_List_baseIPN5boost9unit_test9test_unitESaIS4_EE11_M_dec_sizeEm
FNDA:27,_ZNSt7__cxx1110_List_baseIPN5boost9unit_test9test_unitESaIS4_EE11_M_get_nodeEv
FNDA:27,_ZNSt7__cxx1110_List_baseIPN5boost9unit_test9test_unitESaIS4_EE11_M_put_nodeEPSt10_List_nodeIS4_E
FNDA:54,_ZNSt7__cxx1110_List_baseIPN5boost9unit_test9test_unitESaIS4_EE21_M_get_Node_allocatorEv
FNDA:4,_ZNSt7__cxx1110_List_baseIPN5boost9unit_test9test_unitESaIS4_EEC2Ev
FNDA:4,_ZNSt7__cxx1110_List_baseIPN5boost9unit_test9test_unitESaIS4_EED2Ev
FNDA:4,_ZNSt7__cxx1110_List_baseIPN5boost9unit_test9test_unitESaIS4_EE7_M_initEv
FNDA:27,_ZNSt7__cxx114listIPN5boost9unit_test9test_unitESaIS4_EE14_M_create_nodeIJS4_EEEPSt10_List_nodeIS4_EDpOT_
FNDA:4,_ZNSt7__cxx114listIPN5boost9unit_test9test_unitESaIS4_EEC2Ev
FNDA:4,_ZNSt7__cxx114listIPN5boost9unit_test9test_unitESaIS4_EED2Ev
FNDA:54,_ZNSt7__cxx114listIPN5boost9unit_test9test_unitESaIS4_EE5beginEv
FNDA:27,_ZNSt7__cxx114listIPN5boost9unit_test9test_unitESaIS4_EE3endEv
FNDA:31,_ZNKSt7__cxx114listIPN5boost9unit_test9test_unitESaIS4_EE5emptyEv
FNDA:27,_ZNSt7__cxx114listIPN5boost9unit_test9test_unitESaIS4_EE5frontEv
FNDA:27,_ZNSt7__cxx114listIPN5boost9unit_test9test_unitESaIS4_EE9pop_frontEv
FNDA:27,_ZNSt7__cxx114listIPN5boost9unit_test9test_unitESaIS4_EE9push_backEOS4_
FNDA:27,_ZNSt7__cxx114listIPN5boost9unit_test9test_unitESaIS4_EE9_M_insertIJS4_EEEvSt14_List_iteratorIS4_EDpOT_
FNDA:27,_ZNSt7__cxx114listIPN5boost9unit_test9test_unitESaIS4_EE8_M_eraseESt14_List_iteratorIS4_E
FNF:26
FNH:26
DA:113,139
DA:143,81
DA:144,81
DA:152,27
DA:153,27
DA:323,4
DA:332,4
DA:333,4
DA:334,4
DA:352,4
DA:354,27
DA:356,27
DA:382,27
DA:383,27
DA:386,27
DA:387,27
DA:393,54
DA:394,54
DA:400,4
DA:401,4
DA:402,4
DA:441,4
DA:442,4
DA:448,4
DA:450,4
DA:451,4
DA:452,4
DA:453,4
DA:570,27
DA:572,27
DA:573,27
DA:574,54
DA:575,27
DA:577,27
DA:578,54
DA:589,4
DA:593,4
DA:733,4
DA:851,54
DA:852,54
DA:869,27
DA:870,27
DA:961,31
DA:962,31
DA:1020,27
DA:1021,27
DA:1103,27
DA:1104,27
DA:1122,27
DA:1123,27
DA:1799,27
DA:1801,27
DA:1802,27
DA:1803,27
DA:1804,27
DA:1809,27
DA:1811,27
DA:1812,27
DA:1813,27
DA:1815,27
DA:1820,27
DA:1821,27
LF:62
LH:62
end_of_record
SF:/usr/include/c++/7/bits/stl_map.h
FN:177,_ZNSt3mapIN5boost16exception_detail10type_info_ENS0_10shared_ptrINS1_15error_info_baseEEESt4lessIS2_ESaISt4pairIKS2_S5_EEEC2Ev
FN:294,_ZNSt3mapIN5boost16exception_detail10type_info_ENS0_10shared_ptrINS1_15error_info_baseEEESt4lessIS2_ESaISt4pairIKS2_S5_EEED2Ev
FN:357,_ZNKSt3mapIN5boost16exception_detail10type_info_ENS0_10shared_ptrINS1_15error_info_baseEEESt4lessIS2_ESaISt4pairIKS2_S5_EEE5beginEv
FN:366,_ZNSt3mapIN5boost16exception_detail10type_info_ENS0_10shared_ptrINS1_15error_info_baseEEESt4lessIS2_ESaISt4pairIKS2_S5_EEE3endEv
FN:375,_ZNKSt3mapIN5boost16exception_detail10type_info_ENS0_10shared_ptrINS1_15error_info_baseEEESt4lessIS2_ESaISt4pairIKS2_S5_EEE3endEv
FN:484,_ZNSt3mapIN5boost16exception_detail10type_info_ENS0_10shared_ptrINS1_15error_info_baseEEESt4lessIS2_ESaISt4pairIKS2_S5_EEEixERS9_
FN:809,_ZNSt3mapIN5boost16exception_detail10type_info_ENS0_10shared_ptrINS1_15error_info_baseEEESt4lessIS2_ESaISt4pairIKS2_S5_EEE6insertIS8_IS2_S5_EvEES8_ISt17_Rb_tree_iteratorISA_EbEOT_
FN:1136,_ZNKSt3mapIN5boost16exception_detail10type_info_ENS0_10shared_ptrINS1_15error_info_baseEEESt4lessIS2_ESaISt4pairIKS2_S5_EEE8key_compEv
FN:1188,_ZNKSt3mapIN5boost16exception_detail10type_info_ENS0_10shared_ptrINS1_15error_info_baseEEESt4lessIS2_ESaISt4pairIKS2_S5_EEE4findERS9_
FN:1233,_ZNSt3mapIN5boost16exception_detail10type_info_ENS0_10shared_ptrINS1_15error_info_baseEEESt4lessIS2_ESaISt4pairIKS2_S5_EEE11lower_boundERS9_
FNDA:0,_ZNSt3mapIN5boost16exception_detail10type_info_ENS0_10shared_ptrINS1_15error_info_baseEEESt4lessIS2_ESaISt4pairIKS2_S5_EEEC2Ev
FNDA:0,_ZNSt3mapIN5boost16exception_detail10type_info_ENS0_10shared_ptrINS1_15error_info_baseEEESt4lessIS2_ESaISt4pairIKS2_S5_EEED2Ev
FNDA:0,_ZNKSt3mapIN5boost16exception_detail10type_info_ENS0_10shared_ptrINS1_15error_info_baseEEESt4lessIS2_ESaISt4pairIKS2_S5_EEE5beginEv
FNDA:0,_ZNSt3mapIN5boost16exception_detail10type_info_ENS0_10shared_ptrINS1_15error_info_baseEEESt4lessIS2_ESaISt4pairIKS2_S5_EEE3endEv
FNDA:0,_ZNKSt3mapIN5boost16exception_detail10type_info_ENS0_10shared_ptrINS1_15error_info_baseEEESt4lessIS2_ESaISt4pairIKS2_S5_EEE3endEv
FNDA:0,_ZNSt3mapIN5boost16exception_detail10type_info_ENS0_10shared_ptrINS1_15error_info_baseEEESt4lessIS2_ESaISt4pairIKS2_S5_EEEixERS9_
FNDA:0,_ZNSt3mapIN5boost16exception_detail10type_info_ENS0_10shared_ptrINS1_15error_info_baseEEESt4lessIS2_ESaISt4pairIKS2_S5_EEE6insertIS8_IS2_S5_EvEES8_ISt17_Rb_tree_iteratorISA_EbEOT_
FNDA:0,_ZNKSt3mapIN5boost16exception_detail10type_info_ENS0_10shared_ptrINS1_15error_info_baseEEESt4lessIS2_ESaISt4pairIKS2_S5_EEE8key_compEv
FNDA:0,_ZNKSt3mapIN5boost16exception_detail10type_info_ENS0_10shared_ptrINS1_15error_info_baseEEESt4lessIS2_ESaISt4pairIKS2_S5_EEE4findERS9_
FNDA:0,_ZNSt3mapIN5boost16exception_detail10type_info_ENS0_10shared_ptrINS1_15error_info_baseEEESt4lessIS2_ESaISt4pairIKS2_S5_EEE11lower_boundERS9_
FNF:10
FNH:0
DA:177,0
DA:294,0
DA:357,0
DA:358,0
DA:366,0
DA:367,0
DA:375,0
DA:376,0
DA:484,0
DA:489,0
DA:491,0
DA:493,0
DA:499,0
DA:809,0
DA:810,0
DA:1136,0
DA:1137,0
DA:1188,0
DA:1189,0
DA:1233,0
DA:1234,0
LF:21
LH:0
end_of_record
SF:/usr/include/c++/7/bits/stl_pair.h
FN:198,_ZNSt4pairIKN5boost16exception_detail10type_info_ENS0_10shared_ptrINS1_15error_info_baseEEEED2Ev
FN:198,_ZNSt4pairIN5boost16exception_detail10type_info_ENS0_10shared_ptrINS1_15error_info_baseEEEED2Ev
FN:300,_ZNSt4pairIPSt18_Rb_tree_node_baseS1_EC2IRS1_Lb1EEEOT_RKS1_
FN:314,_ZNSt4pairIPSt18_Rb_tree_node_baseS1_EC2IRS1_Lb1EEERKS1_OT_
FN:314,_ZNSt4pairIN5boost16exception_detail10type_info_ENS0_10shared_ptrINS1_15error_info_baseEEEEC2IRS5_Lb1EEERKS2_OT_
FN:330,_ZNSt4pairIPSt18_Rb_tree_node_baseS1_EC2IRS1_S4_Lb1EEEOT_OT0_
FN:330,_ZNSt4pairISt17_Rb_tree_iteratorIS_IKN5boost16exception_detail10type_info_ENS1_10shared_ptrINS2_15error_info_baseEEEEEbEC2IS9_bLb1EEEOT_OT0_
FN:330,_ZNSt4pairIPSt18_Rb_tree_node_baseS1_EC2IRPSt13_Rb_tree_nodeIS_IKN5boost16exception_detail10type_info_ENS5_10shared_ptrINS6_15error_info_baseEEEEERS1_Lb1EEEOT_OT0_
FN:349,_ZNSt4pairIKN5boost16exception_detail10type_info_ENS0_10shared_ptrINS1_15error_info_baseEEEEC2IS2_S6_Lb1EEEOS_IT_T0_E
FN:519,_ZSt9make_pairIRKN5boost16exception_detail10type_info_ERNS0_10shared_ptrINS1_15error_info_baseEEEESt4pairINSt17__decay_and_stripIT_E6__typeENSA_IT0_E6__typeEEOSB_OSE_
FNDA:0,_ZNSt4pairIKN5boost16exception_detail10type_info_ENS0_10shared_ptrINS1_15error_info_baseEEEED2Ev
FNDA:0,_ZNSt4pairIN5boost16exception_detail10type_info_ENS0_10shared_ptrINS1_15error_info_baseEEEED2Ev
FNDA:0,_ZNSt4pairIPSt18_Rb_tree_node_baseS1_EC2IRS1_Lb1EEEOT_RKS1_
FNDA:0,_ZNSt4pairIPSt18_Rb_tree_node_baseS1_EC2IRS1_Lb1EEERKS1_OT_
FNDA:0,_ZNSt4pairIN5boost16exception_detail10type_info_ENS0_10shared_ptrINS1_15error_info_baseEEEEC2IRS5_Lb1EEERKS2_OT_
FNDA:0,_ZNSt4pairISt17_Rb_tree_iteratorIS_IKN5boost16exception_detail10type_info_ENS1_10shared_ptrINS2_15error_info_baseEEEEEbEC2IS9_bLb1EEEOT_OT0_
FNDA:0,_ZNSt4pairIPSt18_Rb_tree_node_baseS1_EC2IRPSt13_Rb_tree_nodeIS_IKN5boost16exception_detail10type_info_ENS5_10shared_ptrINS6_15error_info_baseEEEEERS1_Lb1EEEOT_OT0_
FNDA:0,_ZNSt4pairIPSt18_Rb_tree_node_baseS1_EC2IRS1_S4_Lb1EEEOT_OT0_
FNDA:0,_ZNSt4pairIKN5boost16exception_detail10type_info_ENS0_10shared_ptrINS1_15error_info_baseEEEEC2IS2_S6_Lb1EEEOS_IT_T0_E
FNDA:0,_ZSt9make_pairIRKN5boost16exception_detail10type_info_ERNS0_10shared_ptrINS1_15error_info_baseEEEESt4pairINSt17__decay_and_stripIT_E6__typeENSA_IT0_E6__typeEEOSB_OSE_
FNF:10
FNH:0
DA:198,0
DA:300,0
DA:301,0
DA:314,0
DA:315,0
DA:330,0
DA:331,0
DA:349,0
DA:350,0
DA:351,0
DA:519,0
DA:524,0
LF:12
LH:0
end_of_record
SF:/usr/include/c++/7/bits/stl_tree.h
FN:146,_ZNSt20_Rb_tree_key_compareISt4lessIN5boost16exception_detail10type_info_EEEC2Ev
FN:173,_ZNSt15_Rb_tree_headerC2Ev
FN:206,_ZNSt15_Rb_tree_header8_M_resetEv
FN:234,_ZNSt13_Rb_tree_nodeISt4pairIKN5boost16exception_detail10type_info_ENS1_10shared_ptrINS2_15error_info_baseEEEEE9_M_valptrEv
FN:238,_ZNKSt13_Rb_tree_nodeISt4pairIKN5boost16exception_detail10type_info_ENS1_10shared_ptrINS2_15error_info_baseEEEEE9_M_valptrEv
FN:273,_ZNSt17_Rb_tree_iteratorISt4pairIKN5boost16exception_detail10type_info_ENS1_10shared_ptrINS2_15error_info_baseEEEEEC2EPSt18_Rb_tree_node_base
FN:277,_ZNKSt17_Rb_tree_iteratorISt4pairIKN5boost16exception_detail10type_info_ENS1_10shared_ptrINS2_15error_info_baseEEEEEdeEv
FN:285,_ZNSt17_Rb_tree_iteratorISt4pairIKN5boost16exception_detail10type_info_ENS1_10shared_ptrINS2_15error_info_baseEEEEEppEv
FN:300,_ZNSt17_Rb_tree_iteratorISt4pairIKN5boost16exception_detail10type_info_ENS1_10shared_ptrINS2_15error_info_baseEEEEEmmEv
FN:315,_ZNKSt17_Rb_tree_iteratorISt4pairIKN5boost16exception_detail10type_info_ENS1_10shared_ptrINS2_15error_info_baseEEEEEeqERKS9_
FN:345,_ZNSt23_Rb_tree_const_iteratorISt4pairIKN5boost16exception_detail10type_info_ENS1_10shared_ptrINS2_15error_info_baseEEEEEC2EPKSt18_Rb_tree_node_base
FN:348,_ZNSt23_Rb_tree_const_iteratorISt4pairIKN5boost16exception_detail10type_info_ENS1_10shared_ptrINS2_15error_info_baseEEEEEC2ERKSt17_Rb_tree_iteratorIS8_E
FN:352,_ZNKSt23_Rb_tree_const_iteratorISt4pairIKN5boost16exception_detail10type_info_ENS1_10shared_ptrINS2_15error_info_baseEEEEE13_M_const_castEv
FN:360,_ZNKSt23_Rb_tree_const_iteratorISt4pairIKN5boost16exception_detail10type_info_ENS1_10shared_ptrINS2_15error_info_baseEEEEEptEv
FN:364,_ZNSt23_Rb_tree_const_iteratorISt4pairIKN5boost16exception_detail10type_info_ENS1_10shared_ptrINS2_15error_info_baseEEEEEppEv
FN:394,_ZNKSt23_Rb_tree_const_iteratorISt4pairIKN5boost16exception_detail10type_info_ENS1_10shared_ptrINS2_15error_info_baseEEEEEeqERKS9_
FN:398,_ZNKSt23_Rb_tree_const_iteratorISt4pairIKN5boost16exception_detail10type_info_ENS1_10shared_ptrINS2_15error_info_baseEEEEEneERKS9_
FN:546,_ZNSt8_Rb_treeIN5boost16exception_detail10type_info_ESt4pairIKS2_NS0_10shared_ptrINS1_15error_info_baseEEEESt10_Select1stIS8_ESt4lessIS2_ESaIS8_EE11_Alloc_nodeC2ERSE_
FN:554,_ZNKSt8_Rb_treeIN5boost16exception_detail10type_info_ESt4pairIKS2_NS0_10shared_ptrINS1_15error_info_baseEEEESt10_Select1stIS8_ESt4lessIS2_ESaIS8_EE11_Alloc_nodeclIS3_IS2_S7_EEEPSt13_Rb_tree_nodeIS8_EOT_
FN:574,_ZNSt8_Rb_treeIN5boost16exception_detail10type_info_ESt4pairIKS2_NS0_10shared_ptrINS1_15error_info_baseEEEESt10_Select1stIS8_ESt4lessIS2_ESaIS8_EE21_M_get_Node_allocatorEv
FN:587,_ZNSt8_Rb_treeIN5boost16exception_detail10type_info_ESt4pairIKS2_NS0_10shared_ptrINS1_15error_info_baseEEEESt10_Select1stIS8_ESt4lessIS2_ESaIS8_EE11_M_get_nodeEv
FN:591,_ZNSt8_Rb_treeIN5boost16exception_detail10type_info_ESt4pairIKS2_NS0_10shared_ptrINS1_15error_info_baseEEEESt10_Select1stIS8_ESt4lessIS2_ESaIS8_EE11_M_put_nodeEPSt13_Rb_tree_nodeIS8_E
FN:621,_ZNSt8_Rb_treeIN5boost16exception_detail10type_info_ESt4pairIKS2_NS0_10shared_ptrINS1_15error_info_baseEEEESt10_Select1stIS8_ESt4lessIS2_ESaIS8_EE17_M_construct_nodeIJS3_IS2_S7_EEEEvPSt13_Rb_tree_nodeIS8_EDpOT_
FN:621,_ZNSt8_Rb_treeIN5boost16exception_detail10type_info_ESt4pairIKS2_NS0_10shared_ptrINS1_15error_info_baseEEEESt10_Select1stIS8_ESt4lessIS2_ESaIS8_EE17_M_construct_nodeIJRKSt21piecewise_construct_tSt5tupleIJRS4_EESJ_IJEEEEEvPSt13_Rb_tree_nodeIS8_EDpOT_
FN:640,_ZNSt8_Rb_treeIN5boost16exception_detail10type_info_ESt4pairIKS2_NS0_10shared_ptrINS1_15error_info_baseEEEESt10_Select1stIS8_ESt4lessIS2_ESaIS8_EE14_M_create_nodeIJRKSt21piecewise_construct_tSt5tupleIJRS4_EESJ_IJEEEEEPSt13_Rb_tree_nodeIS8_EDpOT_
FN:640,_ZNSt8_Rb_treeIN5boost16exception_detail10type_info_ESt4pairIKS2_NS0_10shared_ptrINS1_15error_info_baseEEEESt10_Select1stIS8_ESt4lessIS2_ESaIS8_EE14_M_create_nodeIJS3_IS2_S7_EEEEPSt13_Rb_tree_nodeIS8_EDpOT_
FN:648,_ZNSt8_Rb_treeIN5boost16exception_detail10type_info_ESt4pairIKS2_NS0_10shared_ptrINS1_15error_info_baseEEEESt10_Select1stIS8_ESt4lessIS2_ESaIS8_EE15_M_destroy_nodeEPSt13_Rb_tree_nodeIS8_E
FN:656,_ZNSt8_Rb_treeIN5boost16exception_detail10type_info_ESt4pairIKS2_NS0_10shared_ptrINS1_15error_info_baseEEEESt10_Select1stIS8_ESt4lessIS2_ESaIS8_EE12_M_drop_nodeEPSt13_Rb_tree_nodeIS8_E
FN:677,_ZNSt8_Rb_treeIN5boost16exception_detail10type_info_ESt4pairIKS2_NS0_10shared_ptrINS1_15error_info_baseEEEESt10_Select1stIS8_ESt4lessIS2_ESaIS8_EE13_Rb_tree_implISC_Lb1EED2Ev
FN:688,_ZNSt8_Rb_treeIN5boost16exception_detail10type_info_ESt4pairIKS2_NS0_10shared_ptrINS1_15error_info_baseEEEESt10_Select1stIS8_ESt4lessIS2_ESaIS8_EE13_Rb_tree_implISC_Lb1EEC2Ev
FN:720,_ZNSt8_Rb_treeIN5boost16exception_detail10type_info_ESt4pairIKS2_NS0_10shared_ptrINS1_15error_info_baseEEEESt10_Select1stIS8_ESt4lessIS2_ESaIS8_EE11_M_leftmostEv
FN:728,_ZNSt8_Rb_treeIN5boost16exception_detail10type_info_ESt4pairIKS2_NS0_10shared_ptrINS1_15error_info_baseEEEESt10_Select1stIS8_ESt4lessIS2_ESaIS8_EE12_M_rightmostEv
FN:736,_ZNSt8_Rb_treeIN5boost16exception_detail10type_info_ESt4pairIKS2_NS0_10shared_ptrINS1_15error_info_baseEEEESt10_Select1stIS8_ESt4lessIS2_ESaIS8_EE8_M_beginEv
FN:740,_ZNKSt8_Rb_treeIN5boost16exception_detail10type_info_ESt4pairIKS2_NS0_10shared_ptrINS1_15error_info_baseEEEESt10_Select1stIS8_ESt4lessIS2_ESaIS8_EE8_M_beginEv
FN:747,_ZNSt8_Rb_treeIN5boost16exception_detail10type_info_ESt4pairIKS2_NS0_10shared_ptrINS1_15error_info_baseEEEESt10_Select1stIS8_ESt4lessIS2_ESaIS8_EE6_M_endEv
FN:751,_ZNKSt8_Rb_treeIN5boost16exception_detail10type_info_ESt4pairIKS2_NS0_10shared_ptrINS1_15error_info_baseEEEESt10_Select1stIS8_ESt4lessIS2_ESaIS8_EE6_M_endEv
FN:755,_ZNSt8_Rb_treeIN5boost16exception_detail10type_info_ESt4pairIKS2_NS0_10shared_ptrINS1_15error_info_baseEEEESt10_Select1stIS8_ESt4lessIS2_ESaIS8_EE8_S_valueEPKSt13_Rb_tree_nodeIS8_E
FN:759,_ZNSt8_Rb_treeIN5boost16exception_detail10type_info_ESt4pairIKS2_NS0_10shared_ptrINS1_15error_info_baseEEEESt10_Select1stIS8_ESt4lessIS2_ESaIS8_EE6_S_keyEPKSt13_Rb_tree_nodeIS8_E
FN:763,_ZNSt8_Rb_treeIN5boost16exception_detail10type_info_ESt4pairIKS2_NS0_10shared_ptrINS1_15error_info_baseEEEESt10_Select1stIS8_ESt4lessIS2_ESaIS8_EE7_S_leftEPSt18_Rb_tree_node_base
FN:767,_ZNSt8_Rb_treeIN5boost16exception_detail10type_info_ESt4pairIKS2_NS0_10shared_ptrINS1_15error_info_baseEEEESt10_Select1stIS8_ESt4lessIS2_ESaIS8_EE7_S_leftEPKSt18_Rb_tree_node_base
FN:771,_ZNSt8_Rb_treeIN5boost16exception_detail10type_info_ESt4pairIKS2_NS0_10shared_ptrINS1_15error_info_baseEEEESt10_Select1stIS8_ESt4lessIS2_ESaIS8_EE8_S_rightEPSt18_Rb_tree_node_base
FN:775,_ZNSt8_Rb_treeIN5boost16exception_detail10type_info_ESt4pairIKS2_NS0_10shared_ptrINS1_15error_info_baseEEEESt10_Select1stIS8_ESt4lessIS2_ESaIS8_EE8_S_rightEPKSt18_Rb_tree_node_base
FN:779,_ZNSt8_Rb_treeIN5boost16exception_detail10type_info_ESt4pairIKS2_NS0_10shared_ptrINS1_15error_info_baseEEEESt10_Select1stIS8_ESt4lessIS2_ESaIS8_EE8_S_valueEPKSt18_Rb_tree_node_base
FN:783,_ZNSt8_Rb_treeIN5boost16exception_detail10type_info_ESt4pairIKS2_NS0_10shared_ptrINS1_15error_info_baseEEEESt10_Select1stIS8_ESt4lessIS2_ESaIS8_EE6_S_keyEPKSt18_Rb_tree_node_base
FN:913,_ZNSt8_Rb_treeIN5boost16exception_detail10type_info_ESt4pairIKS2_NS0_10shared_ptrINS1_15error_info_baseEEEESt10_Select1stIS8_ESt4lessIS2_ESaIS8_EEC2Ev
FN:948,_ZNSt8_Rb_treeIN5boost16exception_detail10type_info_ESt4pairIKS2_NS0_10shared_ptrINS1_15error_info_baseEEEESt10_Select1stIS8_ESt4lessIS2_ESaIS8_EED2Ev
FN:956,_ZNKSt8_Rb_treeIN5boost16exception_detail10type_info_ESt4pairIKS2_NS0_10shared_ptrINS1_15error_info_baseEEEESt10_Select1stIS8_ESt4lessIS2_ESaIS8_EE8key_compEv
FN:960,_ZNSt8_Rb_treeIN5boost16exception_detail10type_info_ESt4pairIKS2_NS0_10shared_ptrINS1_15error_info_baseEEEESt10_Select1stIS8_ESt4lessIS2_ESaIS8_EE5beginEv
FN:964,_ZNKSt8_Rb_treeIN5boost16exception_detail10type_info_ESt4pairIKS2_NS0_10shared_ptrINS1_15error_info_baseEEEESt10_Select1stIS8_ESt4lessIS2_ESaIS8_EE5beginEv
FN:968,_ZNSt8_Rb_treeIN5boost16exception_detail10type_info_ESt4pairIKS2_NS0_10shared_ptrINS1_15error_info_baseEEEESt10_Select1stIS8_ESt4lessIS2_ESaIS8_EE3endEv
FN:972,_ZNKSt8_Rb_treeIN5boost16exception_detail10type_info_ESt4pairIKS2_NS0_10shared_ptrINS1_15error_info_baseEEEESt10_Select1stIS8_ESt4lessIS2_ESaIS8_EE3endEv
FN:996,_ZNKSt8_Rb_treeIN5boost16exception_detail10type_info_ESt4pairIKS2_NS0_10shared_ptrINS1_15error_info_baseEEEESt10_Select1stIS8_ESt4lessIS2_ESaIS8_EE4sizeEv
FN:1186,_ZNSt8_Rb_treeIN5boost16exception_detail10type_info_ESt4pairIKS2_NS0_10shared_ptrINS1_15error_info_baseEEEESt10_Select1stIS8_ESt4lessIS2_ESaIS8_EE11lower_boundERS4_
FN:1740,_ZNSt8_Rb_treeIN5boost16exception_detail10type_info_ESt4pairIKS2_NS0_10shared_ptrINS1_15error_info_baseEEEESt10_Select1stIS8_ESt4lessIS2_ESaIS8_EE10_M_insert_IS3_IS2_S7_ENSE_11_Alloc_nodeEEESt17_Rb_tree_iteratorIS8_EPSt18_Rb_tree_node_baseSL_OT_RT0_
FN:1850,_ZNSt8_Rb_treeIN5boost16exception_detail10type_info_ESt4pairIKS2_NS0_10shared_ptrINS1_15error_info_baseEEEESt10_Select1stIS8_ESt4lessIS2_ESaIS8_EE8_M_eraseEPSt13_Rb_tree_nodeIS8_E
FN:1867,_ZNSt8_Rb_treeIN5boost16exception_detail10type_info_ESt4pairIKS2_NS0_10shared_ptrINS1_15error_info_baseEEEESt10_Select1stIS8_ESt4lessIS2_ESaIS8_EE14_M_lower_boundEPSt13_Rb_tree_nodeIS8_EPSt18_Rb_tree_node_baseRS4_
FN:1883,_ZNKSt8_Rb_treeIN5boost16exception_detail10type_info_ESt4pairIKS2_NS0_10shared_ptrINS1_15error_info_baseEEEESt10_Select1stIS8_ESt4lessIS2_ESaIS8_EE14_M_lower_boundEPKSt13_Rb_tree_nodeIS8_EPKSt18_Rb_tree_node_baseRS4_
FN:2028,_ZNSt8_Rb_treeIN5boost16exception_detail10type_info_ESt4pairIKS2_NS0_10shared_ptrINS1_15error_info_baseEEEESt10_Select1stIS8_ESt4lessIS2_ESaIS8_EE24_M_get_insert_unique_posERS4_
FN:2082,_ZNSt8_Rb_treeIN5boost16exception_detail10type_info_ESt4pairIKS2_NS0_10shared_ptrINS1_15error_info_baseEEEESt10_Select1stIS8_ESt4lessIS2_ESaIS8_EE16_M_insert_uniqueIS3_IS2_S7_EEES3_ISt17_Rb_tree_iteratorIS8_EbEOT_
FN:2130,_ZNSt8_Rb_treeIN5boost16exception_detail10type_info_ESt4pairIKS2_NS0_10shared_ptrINS1_15error_info_baseEEEESt10_Select1stIS8_ESt4lessIS2_ESaIS8_EE29_M_get_insert_hint_unique_posESt23_Rb_tree_const_iteratorIS8_ERS4_
FN:2297,_ZNSt8_Rb_treeIN5boost16exception_detail10type_info_ESt4pairIKS2_NS0_10shared_ptrINS1_15error_info_baseEEEESt10_Select1stIS8_ESt4lessIS2_ESaIS8_EE14_M_insert_nodeEPSt18_Rb_tree_node_baseSG_PSt13_Rb_tree_nodeIS8_E
FN:2395,_ZNSt8_Rb_treeIN5boost16exception_detail10type_info_ESt4pairIKS2_NS0_10shared_ptrINS1_15error_info_baseEEEESt10_Select1stIS8_ESt4lessIS2_ESaIS8_EE22_M_emplace_hint_uniqueIJRKSt21piecewise_construct_tSt5tupleIJRS4_EESJ_IJEEEEESt17_Rb_tree_iteratorIS8_ESt23_Rb_tree_const_iteratorIS8_EDpOT_
FN:2533,_ZNKSt8_Rb_treeIN5boost16exception_detail10type_info_ESt4pairIKS2_NS0_10shared_ptrINS1_15error_info_baseEEEESt10_Select1stIS8_ESt4lessIS2_ESaIS8_EE4findERS4_
FNDA:0,_ZNSt20_Rb_tree_key_compareISt4lessIN5boost16exception_detail10type_info_EEEC2Ev
FNDA:0,_ZNSt15_Rb_tree_headerC2Ev
FNDA:0,_ZNSt15_Rb_tree_header8_M_resetEv
FNDA:0,_ZNSt13_Rb_tree_nodeISt4pairIKN5boost16exception_detail10type_info_ENS1_10shared_ptrINS2_15error_info_baseEEEEE9_M_valptrEv
FNDA:0,_ZNKSt13_Rb_tree_nodeISt4pairIKN5boost16exception_detail10type_info_ENS1_10shared_ptrINS2_15error_info_baseEEEEE9_M_valptrEv
FNDA:0,_ZNSt17_Rb_tree_iteratorISt4pairIKN5boost16exception_detail10type_info_ENS1_10shared_ptrINS2_15error_info_baseEEEEEC2EPSt18_Rb_tree_node_base
FNDA:0,_ZNKSt17_Rb_tree_iteratorISt4pairIKN5boost16exception_detail10type_info_ENS1_10shared_ptrINS2_15error_info_baseEEEEEdeEv
FNDA:0,_ZNSt17_Rb_tree_iteratorISt4pairIKN5boost16exception_detail10type_info_ENS1_10shared_ptrINS2_15error_info_baseEEEEEppEv
FNDA:0,_ZNSt17_Rb_tree_iteratorISt4pairIKN5boost16exception_detail10type_info_ENS1_10shared_ptrINS2_15error_info_baseEEEEEmmEv
FNDA:0,_ZNKSt17_Rb_tree_iteratorISt4pairIKN5boost16exception_detail10type_info_ENS1_10shared_ptrINS2_15error_info_baseEEEEEeqERKS9_
FNDA:0,_ZNSt23_Rb_tree_const_iteratorISt4pairIKN5boost16exception_detail10type_info_ENS1_10shared_ptrINS2_15error_info_baseEEEEEC2EPKSt18_Rb_tree_node_base
FNDA:0,_ZNSt23_Rb_tree_const_iteratorISt4pairIKN5boost16exception_detail10type_info_ENS1_10shared_ptrINS2_15error_info_baseEEEEEC2ERKSt17_Rb_tree_iteratorIS8_E
FNDA:0,_ZNKSt23_Rb_tree_const_iteratorISt4pairIKN5boost16exception_detail10type_info_ENS1_10shared_ptrINS2_15error_info_baseEEEEE13_M_const_castEv
FNDA:0,_ZNKSt23_Rb_tree_const_iteratorISt4pairIKN5boost16exception_detail10type_info_ENS1_10shared_ptrINS2_15error_info_baseEEEEEptEv
FNDA:0,_ZNSt23_Rb_tree_const_iteratorISt4pairIKN5boost16exception_detail10type_info_ENS1_10shared_ptrINS2_15error_info_baseEEEEEppEv
FNDA:0,_ZNKSt23_Rb_tree_const_iteratorISt4pairIKN5boost16exception_detail10type_info_ENS1_10shared_ptrINS2_15error_info_baseEEEEEeqERKS9_
FNDA:0,_ZNKSt23_Rb_tree_const_iteratorISt4pairIKN5boost16exception_detail10type_info_ENS1_10shared_ptrINS2_15error_info_baseEEEEEneERKS9_
FNDA:0,_ZNSt8_Rb_treeIN5boost16exception_detail10type_info_ESt4pairIKS2_NS0_10shared_ptrINS1_15error_info_baseEEEESt10_Select1stIS8_ESt4lessIS2_ESaIS8_EE11_Alloc_nodeC2ERSE_
FNDA:0,_ZNKSt8_Rb_treeIN5boost16exception_detail10type_info_ESt4pairIKS2_NS0_10shared_ptrINS1_15error_info_baseEEEESt10_Select1stIS8_ESt4lessIS2_ESaIS8_EE11_Alloc_nodeclIS3_IS2_S7_EEEPSt13_Rb_tree_nodeIS8_EOT_
FNDA:0,_ZNSt8_Rb_treeIN5boost16exception_detail10type_info_ESt4pairIKS2_NS0_10shared_ptrINS1_15error_info_baseEEEESt10_Select1stIS8_ESt4lessIS2_ESaIS8_EE21_M_get_Node_allocatorEv
FNDA:0,_ZNSt8_Rb_treeIN5boost16exception_detail10type_info_ESt4pairIKS2_NS0_10shared_ptrINS1_15error_info_baseEEEESt10_Select1stIS8_ESt4lessIS2_ESaIS8_EE11_M_get_nodeEv
FNDA:0,_ZNSt8_Rb_treeIN5boost16exception_detail10type_info_ESt4pairIKS2_NS0_10shared_ptrINS1_15error_info_baseEEEESt10_Select1stIS8_ESt4lessIS2_ESaIS8_EE11_M_put_nodeEPSt13_Rb_tree_nodeIS8_E
FNDA:0,_ZNSt8_Rb_treeIN5boost16exception_detail10type_info_ESt4pairIKS2_NS0_10shared_ptrINS1_15error_info_baseEEEESt10_Select1stIS8_ESt4lessIS2_ESaIS8_EE17_M_construct_nodeIJS3_IS2_S7_EEEEvPSt13_Rb_tree_nodeIS8_EDpOT_
FNDA:0,_ZNSt8_Rb_treeIN5boost16exception_detail10type_info_ESt4pairIKS2_NS0_10shared_ptrINS1_15error_info_baseEEEESt10_Select1stIS8_ESt4lessIS2_ESaIS8_EE17_M_construct_nodeIJRKSt21piecewise_construct_tSt5tupleIJRS4_EESJ_IJEEEEEvPSt13_Rb_tree_nodeIS8_EDpOT_
FNDA:0,_ZNSt8_Rb_treeIN5boost16exception_detail10type_info_ESt4pairIKS2_NS0_10shared_ptrINS1_15error_info_baseEEEESt10_Select1stIS8_ESt4lessIS2_ESaIS8_EE14_M_create_nodeIJS3_IS2_S7_EEEEPSt13_Rb_tree_nodeIS8_EDpOT_
FNDA:0,_ZNSt8_Rb_treeIN5boost16exception_detail10type_info_ESt4pairIKS2_NS0_10shared_ptrINS1_15error_info_baseEEEESt10_Select1stIS8_ESt4lessIS2_ESaIS8_EE14_M_create_nodeIJRKSt21piecewise_construct_tSt5tupleIJRS4_EESJ_IJEEEEEPSt13_Rb_tree_nodeIS8_EDpOT_
FNDA:0,_ZNSt8_Rb_treeIN5boost16exception_detail10type_info_ESt4pairIKS2_NS0_10shared_ptrINS1_15error_info_baseEEEESt10_Select1stIS8_ESt4lessIS2_ESaIS8_EE15_M_destroy_nodeEPSt13_Rb_tree_nodeIS8_E
FNDA:0,_ZNSt8_Rb_treeIN5boost16exception_detail10type_info_ESt4pairIKS2_NS0_10shared_ptrINS1_15error_info_baseEEEESt10_Select1stIS8_ESt4lessIS2_ESaIS8_EE12_M_drop_nodeEPSt13_Rb_tree_nodeIS8_E
FNDA:0,_ZNSt8_Rb_treeIN5boost16exception_detail10type_info_ESt4pairIKS2_NS0_10shared_ptrINS1_15error_info_baseEEEESt10_Select1stIS8_ESt4lessIS2_ESaIS8_EE13_Rb_tree_implISC_Lb1EED2Ev
FNDA:0,_ZNSt8_Rb_treeIN5boost16exception_detail10type_info_ESt4pairIKS2_NS0_10shared_ptrINS1_15error_info_baseEEEESt10_Select1stIS8_ESt4lessIS2_ESaIS8_EE13_Rb_tree_implISC_Lb1EEC2Ev
FNDA:0,_ZNSt8_Rb_treeIN5boost16exception_detail10type_info_ESt4pairIKS2_NS0_10shared_ptrINS1_15error_info_baseEEEESt10_Select1stIS8_ESt4lessIS2_ESaIS8_EE11_M_leftmostEv
FNDA:0,_ZNSt8_Rb_treeIN5boost16exception_detail10type_info_ESt4pairIKS2_NS0_10shared_ptrINS1_15error_info_baseEEEESt10_Select1stIS8_ESt4lessIS2_ESaIS8_EE12_M_rightmostEv
FNDA:0,_ZNSt8_Rb_treeIN5boost16exception_detail10type_info_ESt4pairIKS2_NS0_10shared_ptrINS1_15error_info_baseEEEESt10_Select1stIS8_ESt4lessIS2_ESaIS8_EE8_M_beginEv
FNDA:0,_ZNKSt8_Rb_treeIN5boost16exception_detail10type_info_ESt4pairIKS2_NS0_10shared_ptrINS1_15error_info_baseEEEESt10_Select1stIS8_ESt4lessIS2_ESaIS8_EE8_M_beginEv
FNDA:0,_ZNSt8_Rb_treeIN5boost16exception_detail10type_info_ESt4pairIKS2_NS0_10shared_ptrINS1_15error_info_baseEEEESt10_Select1stIS8_ESt4lessIS2_ESaIS8_EE6_M_endEv
FNDA:0,_ZNKSt8_Rb_treeIN5boost16exception_detail10type_info_ESt4pairIKS2_NS0_10shared_ptrINS1_15error_info_baseEEEESt10_Select1stIS8_ESt4lessIS2_ESaIS8_EE6_M_endEv
FNDA:0,_ZNSt8_Rb_treeIN5boost16exception_detail10type_info_ESt4pairIKS2_NS0_10shared_ptrINS1_15error_info_baseEEEESt10_Select1stIS8_ESt4lessIS2_ESaIS8_EE8_S_valueEPKSt13_Rb_tree_nodeIS8_E
FNDA:0,_ZNSt8_Rb_treeIN5boost16exception_detail10type_info_ESt4pairIKS2_NS0_10shared_ptrINS1_15error_info_baseEEEESt10_Select1stIS8_ESt4lessIS2_ESaIS8_EE6_S_keyEPKSt13_Rb_tree_nodeIS8_E
FNDA:0,_ZNSt8_Rb_treeIN5boost16exception_detail10type_info_ESt4pairIKS2_NS0_10shared_ptrINS1_15error_info_baseEEEESt10_Select1stIS8_ESt4lessIS2_ESaIS8_EE7_S_leftEPSt18_Rb_tree_node_base
FNDA:0,_ZNSt8_Rb_treeIN5boost16exception_detail10type_info_ESt4pairIKS2_NS0_10shared_ptrINS1_15error_info_baseEEEESt10_Select1stIS8_ESt4lessIS2_ESaIS8_EE7_S_leftEPKSt18_Rb_tree_node_base
FNDA:0,_ZNSt8_Rb_treeIN5boost16exception_detail10type_info_ESt4pairIKS2_NS0_10shared_ptrINS1_15error_info_baseEEEESt10_Select1stIS8_ESt4lessIS2_ESaIS8_EE8_S_rightEPSt18_Rb_tree_node_base
FNDA:0,_ZNSt8_Rb_treeIN5boost16exception_detail10type_info_ESt4pairIKS2_NS0_10shared_ptrINS1_15error_info_baseEEEESt10_Select1stIS8_ESt4lessIS2_ESaIS8_EE8_S_rightEPKSt18_Rb_tree_node_base
FNDA:0,_ZNSt8_Rb_treeIN5boost16exception_detail10type_info_ESt4pairIKS2_NS0_10shared_ptrINS1_15error_info_baseEEEESt10_Select1stIS8_ESt4lessIS2_ESaIS8_EE8_S_valueEPKSt18_Rb_tree_node_base
FNDA:0,_ZNSt8_Rb_treeIN5boost16exception_detail10type_info_ESt4pairIKS2_NS0_10shared_ptrINS1_15error_info_baseEEEESt10_Select1stIS8_ESt4lessIS2_ESaIS8_EE6_S_keyEPKSt18_Rb_tree_node_base
FNDA:0,_ZNSt8_Rb_treeIN5boost16exception_detail10type_info_ESt4pairIKS2_NS0_10shared_ptrINS1_15error_info_baseEEEESt10_Select1stIS8_ESt4lessIS2_ESaIS8_EEC2Ev
FNDA:0,_ZNSt8_Rb_treeIN5boost16exception_detail10type_info_ESt4pairIKS2_NS0_10shared_ptrINS1_15error_info_baseEEEESt10_Select1stIS8_ESt4lessIS2_ESaIS8_EED2Ev
FNDA:0,_ZNKSt8_Rb_treeIN5boost16exception_detail10type_info_ESt4pairIKS2_NS0_10shared_ptrINS1_15error_info_baseEEEESt10_Select1stIS8_ESt4lessIS2_ESaIS8_EE8key_compEv
FNDA:0,_ZNSt8_Rb_treeIN5boost16exception_detail10type_info_ESt4pairIKS2_NS0_10shared_ptrINS1_15error_info_baseEEEESt10_Select1stIS8_ESt4lessIS2_ESaIS8_EE5beginEv
FNDA:0,_ZNKSt8_Rb_treeIN5boost16exception_detail10type_info_ESt4pairIKS2_NS0_10shared_ptrINS1_15error_info_baseEEEESt10_Select1stIS8_ESt4lessIS2_ESaIS8_EE5beginEv
FNDA:0,_ZNSt8_Rb_treeIN5boost16exception_detail10type_info_ESt4pairIKS2_NS0_10shared_ptrINS1_15error_info_baseEEEESt10_Select1stIS8_ESt4lessIS2_ESaIS8_EE3endEv
FNDA:0,_ZNKSt8_Rb_treeIN5boost16exception_detail10type_info_ESt4pairIKS2_NS0_10shared_ptrINS1_15error_info_baseEEEESt10_Select1stIS8_ESt4lessIS2_ESaIS8_EE3endEv
FNDA:0,_ZNKSt8_Rb_treeIN5boost16exception_detail10type_info_ESt4pairIKS2_NS0_10shared_ptrINS1_15error_info_baseEEEESt10_Select1stIS8_ESt4lessIS2_ESaIS8_EE4sizeEv
FNDA:0,_ZNSt8_Rb_treeIN5boost16exception_detail10type_info_ESt4pairIKS2_NS0_10shared_ptrINS1_15error_info_baseEEEESt10_Select1stIS8_ESt4lessIS2_ESaIS8_EE11lower_boundERS4_
FNDA:0,_ZNSt8_Rb_treeIN5boost16exception_detail10type_info_ESt4pairIKS2_NS0_10shared_ptrINS1_15error_info_baseEEEESt10_Select1stIS8_ESt4lessIS2_ESaIS8_EE10_M_insert_IS3_IS2_S7_ENSE_11_Alloc_nodeEEESt17_Rb_tree_iteratorIS8_EPSt18_Rb_tree_node_baseSL_OT_RT0_
FNDA:0,_ZNSt8_Rb_treeIN5boost16exception_detail10type_info_ESt4pairIKS2_NS0_10shared_ptrINS1_15error_info_baseEEEESt10_Select1stIS8_ESt4lessIS2_ESaIS8_EE8_M_eraseEPSt13_Rb_tree_nodeIS8_E
FNDA:0,_ZNSt8_Rb_treeIN5boost16exception_detail10type_info_ESt4pairIKS2_NS0_10shared_ptrINS1_15error_info_baseEEEESt10_Select1stIS8_ESt4lessIS2_ESaIS8_EE14_M_lower_boundEPSt13_Rb_tree_nodeIS8_EPSt18_Rb_tree_node_baseRS4_
FNDA:0,_ZNKSt8_Rb_treeIN5boost16exception_detail10type_info_ESt4pairIKS2_NS0_10shared_ptrINS1_15error_info_baseEEEESt10_Select1stIS8_ESt4lessIS2_ESaIS8_EE14_M_lower_boundEPKSt13_Rb_tree_nodeIS8_EPKSt18_Rb_tree_node_baseRS4_
FNDA:0,_ZNSt8_Rb_treeIN5boost16exception_detail10type_info_ESt4pairIKS2_NS0_10shared_ptrINS1_15error_info_baseEEEESt10_Select1stIS8_ESt4lessIS2_ESaIS8_EE24_M_get_insert_unique_posERS4_
FNDA:0,_ZNSt8_Rb_treeIN5boost16exception_detail10type_info_ESt4pairIKS2_NS0_10shared_ptrINS1_15error_info_baseEEEESt10_Select1stIS8_ESt4lessIS2_ESaIS8_EE16_M_insert_uniqueIS3_IS2_S7_EEES3_ISt17_Rb_tree_iteratorIS8_EbEOT_
FNDA:0,_ZNSt8_Rb_treeIN5boost16exception_detail10type_info_ESt4pairIKS2_NS0_10shared_ptrINS1_15error_info_baseEEEESt10_Select1stIS8_ESt4lessIS2_ESaIS8_EE29_M_get_insert_hint_unique_posESt23_Rb_tree_const_iteratorIS8_ERS4_
FNDA:0,_ZNSt8_Rb_treeIN5boost16exception_detail10type_info_ESt4pairIKS2_NS0_10shared_ptrINS1_15error_info_baseEEEESt10_Select1stIS8_ESt4lessIS2_ESaIS8_EE14_M_insert_nodeEPSt18_Rb_tree_node_baseSG_PSt13_Rb_tree_nodeIS8_E
FNDA:0,_ZNSt8_Rb_treeIN5boost16exception_detail10type_info_ESt4pairIKS2_NS0_10shared_ptrINS1_15error_info_baseEEEESt10_Select1stIS8_ESt4lessIS2_ESaIS8_EE22_M_emplace_hint_uniqueIJRKSt21piecewise_construct_tSt5tupleIJRS4_EESJ_IJEEEEESt17_Rb_tree_iteratorIS8_ESt23_Rb_tree_const_iteratorIS8_EDpOT_
FNDA:0,_ZNKSt8_Rb_treeIN5boost16exception_detail10type_info_ESt4pairIKS2_NS0_10shared_ptrINS1_15error_info_baseEEEESt10_Select1stIS8_ESt4lessIS2_ESaIS8_EE4findERS4_
FNF:63
FNH:0
DA:146,0
DA:150,0
DA:173,0
DA:174,0
DA:175,0
DA:176,0
DA:177,0
DA:206,0
DA:208,0
DA:209,0
DA:210,0
DA:211,0
DA:212,0
DA:234,0
DA:235,0
DA:238,0
DA:239,0
DA:273,0
DA:274,0
DA:277,0
DA:278,0
DA:285,0
DA:287,0
DA:288,0
DA:300,0
DA:302,0
DA:303,0
DA:315,0
DA:316,0
DA:345,0
DA:346,0
DA:348,0
DA:349,0
DA:352,0
DA:353,0
DA:360,0
DA:361,0
DA:364,0
DA:366,0
DA:367,0
DA:394,0
DA:395,0
DA:398,0
DA:399,0
DA:546,0
DA:547,0
DA:554,0
DA:556,0
DA:574,0
DA:575,0
DA:587,0
DA:588,0
DA:591,0
DA:592,0
DA:621,0
DA:625,0
DA:626,0
DA:630,0
DA:633,0
DA:634,0
DA:636,0
DA:640,0
DA:642,0
DA:643,0
DA:644,0
DA:648,0
DA:650,0
DA:652,0
DA:656,0
DA:658,0
DA:659,0
DA:660,0
DA:677,0
DA:688,0
DA:720,0
DA:721,0
DA:728,0
DA:729,0
DA:736,0
DA:737,0
DA:740,0
DA:743,0
DA:747,0
DA:748,0
DA:751,0
DA:752,0
DA:755,0
DA:756,0
DA:759,0
DA:760,0
DA:763,0
DA:764,0
DA:767,0
DA:768,0
DA:771,0
DA:772,0
DA:775,0
DA:776,0
DA:779,0
DA:780,0
DA:783,0
DA:784,0
DA:913,0
DA:948,0
DA:949,0
DA:956,0
DA:957,0
DA:960,0
DA:961,0
DA:964,0
DA:965,0
DA:968,0
DA:969,0
DA:972,0
DA:973,0
DA:996,0
DA:997,0
DA:1186,0
DA:1187,0
DA:1740,0
DA:1749,0
DA:1750,0
DA:1753,0
DA:1755,0
DA:1757,0
DA:1758,0
DA:1850,0
DA:1854,0
DA:1856,0
DA:1857,0
DA:1858,0
DA:1859,0
DA:1861,0
DA:1867,0
DA:1871,0
DA:1872,0
DA:1873,0
DA:1875,0
DA:1876,0
DA:1883,0
DA:1887,0
DA:1888,0
DA:1889,0
DA:1891,0
DA:1892,0
DA:2028,0
DA:2032,0
DA:2033,0
DA:2034,0
DA:2035,0
DA:2037,0
DA:2038,0
DA:2039,0
DA:2041,0
DA:2042,0
DA:2044,0
DA:2045,0
DA:2047,0
DA:2049,0
DA:2050,0
DA:2051,0
DA:2082,0
DA:2090,0
DA:2091,0
DA:2093,0
DA:2095,0
DA:2096,0
DA:2098,0
DA:2101,0
DA:2130,0
DA:2134,0
DA:2138,0
DA:2140,0
DA:2141,0
DA:2142,0
DA:2144,0
DA:2146,0
DA:2149,0
DA:2150,0
DA:2151,0
DA:2152,0
DA:2154,0
DA:2155,0
DA:2157,0
DA:2160,0
DA:2162,0
DA:2165,0
DA:2166,0
DA:2167,0
DA:2168,0
DA:2170,0
DA:2171,0
DA:2173,0
DA:2176,0
DA:2180,0
DA:2297,0
DA:2300,0
DA:2301,0
DA:2304,0
DA:2306,0
DA:2307,0
DA:2395,0
DA:2398,0
DA:2402,0
DA:2404,0
DA:2405,0
DA:2407,0
DA:2408,0
DA:2410,0
DA:2412,0
DA:2413,0
DA:2533,0
DA:2536,0
DA:2537,0
DA:2538,0
DA:2539,0
LF:216
LH:0
end_of_record
SF:/usr/include/c++/7/bits/stl_vector.h
FN:81,_ZNSt12_Vector_baseIN5boost10shared_ptrINS0_9unit_test9decorator4baseEEESaIS5_EE12_Vector_implD2Ev
FN:88,_ZNSt12_Vector_baseIN5boost10shared_ptrINS0_9unit_test9decorator4baseEEESaIS5_EE12_Vector_implC2Ev
FN:115,_ZNSt12_Vector_baseIN5boost10shared_ptrINS0_9unit_test9decorator4baseEEESaIS5_EE19_M_get_Tp_allocatorEv
FN:126,_ZNSt12_Vector_baseIN5boost10shared_ptrINS0_9unit_test9decorator4baseEEESaIS5_EEC2Ev
FN:161,_ZNSt12_Vector_baseIN5boost10shared_ptrINS0_9unit_test9decorator4baseEEESaIS5_EED2Ev
FN:176,_ZNSt12_Vector_baseIN5boost10shared_ptrINS0_9unit_test9decorator4baseEEESaIS5_EE13_M_deallocateEPS5_m
FN:259,_ZNSt6vectorIN5boost10shared_ptrINS0_9unit_test9decorator4baseEEESaIS5_EEC2Ev
FN:433,_ZNSt6vectorIN5boost10shared_ptrINS0_9unit_test9decorator4baseEEESaIS5_EED2Ev
FNDA:1,_ZNSt12_Vector_baseIN5boost10shared_ptrINS0_9unit_test9decorator4baseEEESaIS5_EE12_Vector_implD2Ev
FNDA:1,_ZNSt12_Vector_baseIN5boost10shared_ptrINS0_9unit_test9decorator4baseEEESaIS5_EE12_Vector_implC2Ev
FNDA:1,_ZNSt12_Vector_baseIN5boost10shared_ptrINS0_9unit_test9decorator4baseEEESaIS5_EE19_M_get_Tp_allocatorEv
FNDA:1,_ZNSt12_Vector_baseIN5boost10shared_ptrINS0_9unit_test9decorator4baseEEESaIS5_EEC2Ev
FNDA:1,_ZNSt12_Vector_baseIN5boost10shared_ptrINS0_9unit_test9decorator4baseEEESaIS5_EED2Ev
FNDA:1,_ZNSt12_Vector_baseIN5boost10shared_ptrINS0_9unit_test9decorator4baseEEESaIS5_EE13_M_deallocateEPS5_m
FNDA:1,_ZNSt6vectorIN5boost10shared_ptrINS0_9unit_test9decorator4baseEEESaIS5_EEC2Ev
FNDA:1,_ZNSt6vectorIN5boost10shared_ptrINS0_9unit_test9decorator4baseEEESaIS5_EED2Ev
FNF:8
FNH:8
DA:81,1
DA:88,1
DA:89,1
DA:90,1
DA:115,1
DA:116,1
DA:126,1
DA:127,1
DA:161,1
DA:162,2
DA:163,2
DA:176,1
DA:179,1
DA:180,0
DA:181,1
DA:259,1
DA:263,1
DA:433,1
DA:434,1
DA:435,2
LF:20
LH:19
end_of_record
SF:/usr/include/c++/7/ext/aligned_buffer.h
FN:62,_ZN9__gnu_cxx16__aligned_membufISt4pairIKN5boost16exception_detail10type_info_ENS2_10shared_ptrINS3_15error_info_baseEEEEE7_M_addrEv
FN:62,_ZN9__gnu_cxx16__aligned_membufIPN5boost9unit_test9test_unitEE7_M_addrEv
FN:62,_ZN9__gnu_cxx16__aligned_membufImE7_M_addrEv
FN:66,_ZNK9__gnu_cxx16__aligned_membufISt4pairIKN5boost16exception_detail10type_info_ENS2_10shared_ptrINS3_15error_info_baseEEEEE7_M_addrEv
FN:70,_ZN9__gnu_cxx16__aligned_membufImE6_M_ptrEv
FN:70,_ZN9__gnu_cxx16__aligned_membufIPN5boost9unit_test9test_unitEE6_M_ptrEv
FN:70,_ZN9__gnu_cxx16__aligned_membufISt4pairIKN5boost16exception_detail10type_info_ENS2_10shared_ptrINS3_15error_info_baseEEEEE6_M_ptrEv
FN:74,_ZNK9__gnu_cxx16__aligned_membufISt4pairIKN5boost16exception_detail10type_info_ENS2_10shared_ptrINS3_15error_info_baseEEEEE6_M_ptrEv
FNDA:58,_ZN9__gnu_cxx16__aligned_membufImE7_M_addrEv
FNDA:0,_ZN9__gnu_cxx16__aligned_membufISt4pairIKN5boost16exception_detail10type_info_ENS2_10shared_ptrINS3_15error_info_baseEEEEE7_M_addrEv
FNDA:81,_ZN9__gnu_cxx16__aligned_membufIPN5boost9unit_test9test_unitEE7_M_addrEv
FNDA:0,_ZNK9__gnu_cxx16__aligned_membufISt4pairIKN5boost16exception_detail10type_info_ENS2_10shared_ptrINS3_15error_info_baseEEEEE7_M_addrEv
FNDA:58,_ZN9__gnu_cxx16__aligned_membufImE6_M_ptrEv
FNDA:0,_ZN9__gnu_cxx16__aligned_membufISt4pairIKN5boost16exception_detail10type_info_ENS2_10shared_ptrINS3_15error_info_baseEEEEE6_M_ptrEv
FNDA:81,_ZN9__gnu_cxx16__aligned_membufIPN5boost9unit_test9test_unitEE6_M_ptrEv
FNDA:0,_ZNK9__gnu_cxx16__aligned_membufISt4pairIKN5boost16exception_detail10type_info_ENS2_10shared_ptrINS3_15error_info_baseEEEEE6_M_ptrEv
FNF:8
FNH:4
DA:62,139
DA:63,139
DA:66,0
DA:67,0
DA:70,139
DA:71,139
DA:74,0
DA:75,0
LF:8
LH:4
end_of_record
SF:/usr/include/c++/7/ext/new_allocator.h
FN:79,_ZN9__gnu_cxx13new_allocatorISt13_Rb_tree_nodeISt4pairIKN5boost16exception_detail10type_info_ENS3_10shared_ptrINS4_15error_info_baseEEEEEEC2Ev
FN:79,_ZN9__gnu_cxx13new_allocatorIN5boost10shared_ptrINS1_9unit_test9decorator4baseEEEEC2Ev
FN:79,_ZN9__gnu_cxx13new_allocatorISt10_List_nodeIPN5boost9unit_test9test_unitEEEC2Ev
FN:86,_ZN9__gnu_cxx13new_allocatorISt13_Rb_tree_nodeISt4pairIKN5boost16exception_detail10type_info_ENS3_10shared_ptrINS4_15error_info_baseEEEEEED2Ev
FN:86,_ZN9__gnu_cxx13new_allocatorIN5boost10shared_ptrINS1_9unit_test9decorator4baseEEEED2Ev
FN:86,_ZN9__gnu_cxx13new_allocatorISt10_List_nodeIPN5boost9unit_test9test_unitEEED2Ev
FN:99,_ZN9__gnu_cxx13new_allocatorISt13_Rb_tree_nodeISt4pairIKN5boost16exception_detail10type_info_ENS3_10shared_ptrINS4_15error_info_baseEEEEEE8allocateEmPKv
FN:99,_ZN9__gnu_cxx13new_allocatorISt10_List_nodeIPN5boost9unit_test9test_unitEEE8allocateEmPKv
FN:116,_ZN9__gnu_cxx13new_allocatorISt10_List_nodeIPN5boost9unit_test9test_unitEEE10deallocateEPS6_m
FN:116,_ZN9__gnu_cxx13new_allocatorISt13_Rb_tree_nodeISt4pairIKN5boost16exception_detail10type_info_ENS3_10shared_ptrINS4_15error_info_baseEEEEEE10deallocateEPSB_m
FN:116,_ZN9__gnu_cxx13new_allocatorIN5boost10shared_ptrINS1_9unit_test9decorator4baseEEEE10deallocateEPS6_m
FN:129,_ZNK9__gnu_cxx13new_allocatorISt13_Rb_tree_nodeISt4pairIKN5boost16exception_detail10type_info_ENS3_10shared_ptrINS4_15error_info_baseEEEEEE8max_sizeEv
FN:129,_ZNK9__gnu_cxx13new_allocatorISt10_List_nodeIPN5boost9unit_test9test_unitEEE8max_sizeEv
FN:135,_ZN9__gnu_cxx13new_allocatorISt13_Rb_tree_nodeISt4pairIKN5boost16exception_detail10type_info_ENS3_10shared_ptrINS4_15error_info_baseEEEEEE9constructISA_JRKSt21piecewise_construct_tSt5tupleIJRS6_EESH_IJEEEEEvPT_DpOT0_
FN:135,_ZN9__gnu_cxx13new_allocatorISt10_List_nodeIPN5boost9unit_test9test_unitEEE9constructIS5_JS5_EEEvPT_DpOT0_
FN:135,_ZN9__gnu_cxx13new_allocatorISt13_Rb_tree_nodeISt4pairIKN5boost16exception_detail10type_info_ENS3_10shared_ptrINS4_15error_info_baseEEEEEE9constructISA_JS2_IS5_S9_EEEEvPT_DpOT0_
FN:140,_ZN9__gnu_cxx13new_allocatorISt10_List_nodeIPN5boost9unit_test9test_unitEEE7destroyIS5_EEvPT_
FN:140,_ZN9__gnu_cxx13new_allocatorISt13_Rb_tree_nodeISt4pairIKN5boost16exception_detail10type_info_ENS3_10shared_ptrINS4_15error_info_baseEEEEEE7destroyISA_EEvPT_
FNDA:4,_ZN9__gnu_cxx13new_allocatorISt10_List_nodeIPN5boost9unit_test9test_unitEEEC2Ev
FNDA:1,_ZN9__gnu_cxx13new_allocatorIN5boost10shared_ptrINS1_9unit_test9decorator4baseEEEEC2Ev
FNDA:0,_ZN9__gnu_cxx13new_allocatorISt13_Rb_tree_nodeISt4pairIKN5boost16exception_detail10type_info_ENS3_10shared_ptrINS4_15error_info_baseEEEEEEC2Ev
FNDA:4,_ZN9__gnu_cxx13new_allocatorISt10_List_nodeIPN5boost9unit_test9test_unitEEED2Ev
FNDA:1,_ZN9__gnu_cxx13new_allocatorIN5boost10shared_ptrINS1_9unit_test9decorator4baseEEEED2Ev
FNDA:0,_ZN9__gnu_cxx13new_allocatorISt13_Rb_tree_nodeISt4pairIKN5boost16exception_detail10type_info_ENS3_10shared_ptrINS4_15error_info_baseEEEEEED2Ev
FNDA:27,_ZN9__gnu_cxx13new_allocatorISt10_List_nodeIPN5boost9unit_test9test_unitEEE8allocateEmPKv
FNDA:0,_ZN9__gnu_cxx13new_allocatorISt13_Rb_tree_nodeISt4pairIKN5boost16exception_detail10type_info_ENS3_10shared_ptrINS4_15error_info_baseEEEEEE8allocateEmPKv
FNDA:0,_ZN9__gnu_cxx13new_allocatorISt13_Rb_tree_nodeISt4pairIKN5boost16exception_detail10type_info_ENS3_10shared_ptrINS4_15error_info_baseEEEEEE10deallocateEPSB_m
FNDA:27,_ZN9__gnu_cxx13new_allocatorISt10_List_nodeIPN5boost9unit_test9test_unitEEE10deallocateEPS6_m
FNDA:0,_ZN9__gnu_cxx13new_allocatorIN5boost10shared_ptrINS1_9unit_test9decorator4baseEEEE10deallocateEPS6_m
FNDA:27,_ZNK9__gnu_cxx13new_allocatorISt10_List_nodeIPN5boost9unit_test9test_unitEEE8max_sizeEv
FNDA:0,_ZNK9__gnu_cxx13new_allocatorISt13_Rb_tree_nodeISt4pairIKN5boost16exception_detail10type_info_ENS3_10shared_ptrINS4_15error_info_baseEEEEEE8max_sizeEv
FNDA:27,_ZN9__gnu_cxx13new_allocatorISt10_List_nodeIPN5boost9unit_test9test_unitEEE9constructIS5_JS5_EEEvPT_DpOT0_
FNDA:0,_ZN9__gnu_cxx13new_allocatorISt13_Rb_tree_nodeISt4pairIKN5boost16exception_detail10type_info_ENS3_10shared_ptrINS4_15error_info_baseEEEEEE9constructISA_JS2_IS5_S9_EEEEvPT_DpOT0_
FNDA:0,_ZN9__gnu_cxx13new_allocatorISt13_Rb_tree_nodeISt4pairIKN5boost16exception_detail10type_info_ENS3_10shared_ptrINS4_15error_info_baseEEEEEE9constructISA_JRKSt21piecewise_construct_tSt5tupleIJRS6_EESH_IJEEEEEvPT_DpOT0_
FNDA:0,_ZN9__gnu_cxx13new_allocatorISt13_Rb_tree_nodeISt4pairIKN5boost16exception_detail10type_info_ENS3_10shared_ptrINS4_15error_info_baseEEEEEE7destroyISA_EEvPT_
FNDA:27,_ZN9__gnu_cxx13new_allocatorISt10_List_nodeIPN5boost9unit_test9test_unitEEE7destroyIS5_EEvPT_
FNF:18
FNH:9
DA:79,5
DA:86,5
DA:99,27
DA:101,27
DA:102,0
DA:111,27
DA:116,27
DA:125,27
DA:126,27
DA:129,27
DA:130,27
DA:135,27
DA:136,27
DA:140,27
LF:14
LH:13
end_of_record
SF:/usr/include/c++/7/functional
FN:430,_ZNVKSt3_MuIiLb0ELb0EEclIRiSt5tupleIJEEEEOT_S6_RT0_
FN:465,_ZNSt5_BindIFPFvRKiS1_EiiEE6__callIvJEJLm0ELm1EEEET_OSt5tupleIJDpT0_EESt12_Index_tupleIJXspT1_EEE
FN:533,_ZNSt5_BindIFPFvRKiS1_EiiEEC2IJS1_S1_EEEOS3_DpOT_
FN:547,_ZNSt5_BindIFPFvRKiS1_EiiEEclIJEvEET0_DpOT_
FN:875,_ZSt4bindIPFvRKiS1_EJS1_S1_EENSt12_Bind_helperIXsrSt5__or_IJSt11is_integralINSt5decayIT_E4typeEESt7is_enumISA_EEE5valueES8_JDpT0_EE4typeEOS8_DpOSF_
FNDA:54,_ZNVKSt3_MuIiLb0ELb0EEclIRiSt5tupleIJEEEEOT_S6_RT0_
FNDA:27,_ZNSt5_BindIFPFvRKiS1_EiiEE6__callIvJEJLm0ELm1EEEET_OSt5tupleIJDpT0_EESt12_Index_tupleIJXspT1_EEE
FNDA:27,_ZNSt5_BindIFPFvRKiS1_EiiEEC2IJS1_S1_EEEOS3_DpOT_
FNDA:27,_ZNSt5_BindIFPFvRKiS1_EiiEEclIJEvEET0_DpOT_
FNDA:27,_ZSt4bindIPFvRKiS1_EJS1_S1_EENSt12_Bind_helperIXsrSt5__or_IJSt11is_integralINSt5decayIT_E4typeEESt7is_enumISA_EEE5valueES8_JDpT0_EE4typeEOS8_DpOSF_
FNF:5
FNH:5
DA:430,54
DA:431,54
DA:465,27
DA:467,54
DA:468,54
DA:469,27
DA:533,27
DA:534,27
DA:535,27
DA:547,27
DA:550,54
DA:551,54
DA:875,27
DA:879,27
LF:14
LH:14
end_of_record
SF:/usr/include/c++/7/iostream
DA:74,1
LF:1
LH:1
end_of_record
SF:/usr/include/c++/7/new
FN:168,_ZnwmPv
FN:174,_ZdlPvS_
FNDA:169,_ZnwmPv
FNDA:0,_ZdlPvS_
FNF:2
FNH:1
DA:168,169
DA:169,169
DA:174,0
LF:3
LH:2
end_of_record
SF:/usr/include/c++/7/system_error
FN:125,_ZNKSt3_V214error_categoryeqERKS0_
FN:178,_ZNKSt10error_code5valueEv
FN:181,_ZNKSt10error_code8categoryEv
FN:229,_ZNSt15error_conditionC2EiRKNSt3_V214error_categoryE
FN:257,_ZNKSt15error_condition5valueEv
FN:260,_ZNKSt15error_condition8categoryEv
FN:311,_ZSteqRKSt15error_conditionS1_
FNDA:0,_ZNKSt3_V214error_categoryeqERKS0_
FNDA:0,_ZNKSt10error_code5valueEv
FNDA:0,_ZNKSt10error_code8categoryEv
FNDA:0,_ZNSt15error_conditionC2EiRKNSt3_V214error_categoryE
FNDA:0,_ZNKSt15error_condition5valueEv
FNDA:0,_ZNKSt15error_condition8categoryEv
FNDA:0,_ZSteqRKSt15error_conditionS1_
FNF:7
FNH:0
DA:125,0
DA:126,0
DA:178,0
DA:181,0
DA:229,0
DA:230,0
DA:257,0
DA:260,0
DA:311,0
DA:314,0
DA:315,0
LF:11
LH:0
end_of_record
SF:/usr/include/c++/7/tuple
FN:125,_ZNSt10_Head_baseILm0EiLb0EEC2ERKi
FN:125,_ZNSt10_Head_baseILm0ERKN5boost16exception_detail10type_info_ELb0EEC2ES4_
FN:125,_ZNSt10_Head_baseILm0ERKiLb0EEC2ES1_
FN:125,_ZNSt10_Head_baseILm1ERKiLb0EEC2ES1_
FN:125,_ZNSt10_Head_baseILm1EiLb0EEC2ERKi
FN:160,_ZNSt10_Head_baseILm0ERKN5boost16exception_detail10type_info_ELb0EE7_M_headERS5_
FN:160,_ZNSt10_Head_baseILm0EiLb0EE7_M_headERS0_
FN:160,_ZNSt10_Head_baseILm1ERKiLb0EE7_M_headERS2_
FN:160,_ZNSt10_Head_baseILm1EiLb0EE7_M_headERS0_
FN:160,_ZNSt10_Head_baseILm0ERKiLb0EE7_M_headERS2_
FN:195,_ZNSt11_Tuple_implILm0EJRKiS1_EE7_M_headERS2_
FN:195,_ZNSt11_Tuple_implILm0EJiiEE7_M_headERS0_
FN:210,_ZNSt11_Tuple_implILm0EJiiEEC2ERKiS2_
FN:210,_ZNSt11_Tuple_implILm0EJRKiS1_EEC2ES1_S1_
FN:351,_ZNSt11_Tuple_implILm0EJRKiEE7_M_headERS2_
FN:351,_ZNSt11_Tuple_implILm1EJiEE7_M_headERS0_
FN:351,_ZNSt11_Tuple_implILm0EJRKN5boost16exception_detail10type_info_EEE7_M_headERS5_
FN:351,_ZNSt11_Tuple_implILm1EJRKiEE7_M_headERS2_
FN:360,_ZNSt11_Tuple_implILm0EJRKN5boost16exception_detail10type_info_EEEC2ES4_
FN:360,_ZNSt11_Tuple_implILm1EJiEEC2ERKi
FN:360,_ZNSt11_Tuple_implILm0EJRKiEEC2ES1_
FN:360,_ZNSt11_Tuple_implILm1EJRKiEEC2ES1_
FN:371,_ZNSt11_Tuple_implILm0EJRKN5boost16exception_detail10type_info_EEEC2EOS5_
FN:608,_ZNSt5tupleIJRKN5boost16exception_detail10type_info_EEEC2IvLb1EEES4_
FN:608,_ZNSt5tupleIJRKiEEC2IvLb1EEES1_
FN:662,_ZNSt5tupleIJRKN5boost16exception_detail10type_info_EEEC2EOS5_
FN:947,_ZNSt5tupleIJiiEEC2IvLb1EEERKiS3_
FN:947,_ZNSt5tupleIJRKiS1_EEC2IvLb1EEES1_S1_
FN:1303,_ZSt12__get_helperILm0ERKiJS1_EERT0_RSt11_Tuple_implIXT_EJS2_DpT1_EE
FN:1303,_ZSt12__get_helperILm1ERKiJEERT0_RSt11_Tuple_implIXT_EJS2_DpT1_EE
FN:1303,_ZSt12__get_helperILm0EiJiEERT0_RSt11_Tuple_implIXT_EJS0_DpT1_EE
FN:1303,_ZSt12__get_helperILm0ERKiJEERT0_RSt11_Tuple_implIXT_EJS2_DpT1_EE
FN:1303,_ZSt12__get_helperILm1EiJEERT0_RSt11_Tuple_implIXT_EJS0_DpT1_EE
FN:1303,_ZSt12__get_helperILm0ERKN5boost16exception_detail10type_info_EJEERT0_RSt11_Tuple_implIXT_EJS5_DpT1_EE
FN:1314,_ZSt3getILm0EJRKiS1_EERNSt13tuple_elementIXT_ESt5tupleIJDpT0_EEE4typeERS6_
FN:1314,_ZSt3getILm0EJRKiEERNSt13tuple_elementIXT_ESt5tupleIJDpT0_EEE4typeERS6_
FN:1314,_ZSt3getILm1EJRKiS1_EERNSt13tuple_elementIXT_ESt5tupleIJDpT0_EEE4typeERS6_
FN:1314,_ZSt3getILm1EJiiEERNSt13tuple_elementIXT_ESt5tupleIJDpT0_EEE4typeERS4_
FN:1314,_ZSt3getILm0EJRKN5boost16exception_detail10type_info_EEERNSt13tuple_elementIXT_ESt5tupleIJDpT0_EEE4typeERS9_
FN:1314,_ZSt3getILm0EJiiEERNSt13tuple_elementIXT_ESt5tupleIJDpT0_EEE4typeERS4_
FN:1326,_ZSt3getILm0EJRKiEEONSt13tuple_elementIXT_ESt5tupleIJDpT0_EEE4typeEOS6_
FN:1326,_ZSt3getILm0EJRKiS1_EEONSt13tuple_elementIXT_ESt5tupleIJDpT0_EEE4typeEOS6_
FN:1326,_ZSt3getILm1EJRKiS1_EEONSt13tuple_elementIXT_ESt5tupleIJDpT0_EEE4typeEOS6_
FN:1459,_ZSt16forward_as_tupleIJRKiEESt5tupleIJDpOT_EES5_
FN:1459,_ZSt16forward_as_tupleIJEESt5tupleIJDpOT_EES3_
FN:1550,_ZNSt16__tuple_concaterISt5tupleIJRKiS2_EESt12_Index_tupleIJLm0EEEJS0_IJS2_EEEE5_S_doIJS2_EEES3_OS6_DpOT_
FN:1550,_ZNSt16__tuple_concaterISt5tupleIJRKiS2_EESt12_Index_tupleIJLm0EEEJS0_IJS2_EES6_EE5_S_doIJEEES3_OS6_S9_DpOT_
FN:1565,_ZNSt16__tuple_concaterISt5tupleIJRKiS2_EESt12_Index_tupleIJEEJEE5_S_doIJS2_S2_EEES3_DpOT_
FN:1575,_ZSt9tuple_catIJSt5tupleIJRKiEES3_EvENSt18__tuple_cat_resultIJDpT_EE6__typeEDpOS5_
FN:1636,_ZNSt4pairIKN5boost16exception_detail10type_info_ENS0_10shared_ptrINS1_15error_info_baseEEEEC2IJRS3_EJEEESt21piecewise_construct_tSt5tupleIJDpT_EESB_IJDpT0_EE
FN:1648,_ZNSt4pairIKN5boost16exception_detail10type_info_ENS0_10shared_ptrINS1_15error_info_baseEEEEC2IJRS3_EJLm0EEJEJEEERSt5tupleIJDpT_EERSA_IJDpT1_EESt12_Index_tupleIJXspT0_EEESJ_IJXspT2_EEE
FNDA:27,_ZNSt10_Head_baseILm1EiLb0EEC2ERKi
FNDA:27,_ZNSt10_Head_baseILm0EiLb0EEC2ERKi
FNDA:81,_ZNSt10_Head_baseILm0ERKiLb0EEC2ES1_
FNDA:27,_ZNSt10_Head_baseILm1ERKiLb0EEC2ES1_
FNDA:0,_ZNSt10_Head_baseILm0ERKN5boost16exception_detail10type_info_ELb0EEC2ES4_
FNDA:27,_ZNSt10_Head_baseILm0EiLb0EE7_M_headERS0_
FNDA:27,_ZNSt10_Head_baseILm1EiLb0EE7_M_headERS0_
FNDA:81,_ZNSt10_Head_baseILm0ERKiLb0EE7_M_headERS2_
FNDA:27,_ZNSt10_Head_baseILm1ERKiLb0EE7_M_headERS2_
FNDA:0,_ZNSt10_Head_baseILm0ERKN5boost16exception_detail10type_info_ELb0EE7_M_headERS5_
FNDA:27,_ZNSt11_Tuple_implILm0EJiiEE7_M_headERS0_
FNDA:27,_ZNSt11_Tuple_implILm0EJRKiS1_EE7_M_headERS2_
FNDA:27,_ZNSt11_Tuple_implILm0EJiiEEC2ERKiS2_
FNDA:27,_ZNSt11_Tuple_implILm0EJRKiS1_EEC2ES1_S1_
FNDA:27,_ZNSt11_Tuple_implILm1EJiEE7_M_headERS0_
FNDA:54,_ZNSt11_Tuple_implILm0EJRKiEE7_M_headERS2_
FNDA:27,_ZNSt11_Tuple_implILm1EJRKiEE7_M_headERS2_
FNDA:0,_ZNSt11_Tuple_implILm0EJRKN5boost16exception_detail10type_info_EEE7_M_headERS5_
FNDA:27,_ZNSt11_Tuple_implILm1EJiEEC2ERKi
FNDA:54,_ZNSt11_Tuple_implILm0EJRKiEEC2ES1_
FNDA:27,_ZNSt11_Tuple_implILm1EJRKiEEC2ES1_
FNDA:0,_ZNSt11_Tuple_implILm0EJRKN5boost16exception_detail10type_info_EEEC2ES4_
FNDA:0,_ZNSt11_Tuple_implILm0EJRKN5boost16exception_detail10type_info_EEEC2EOS5_
FNDA:54,_ZNSt5tupleIJRKiEEC2IvLb1EEES1_
FNDA:0,_ZNSt5tupleIJRKN5boost16exception_detail10type_info_EEEC2IvLb1EEES4_
FNDA:0,_ZNSt5tupleIJRKN5boost16exception_detail10type_info_EEEC2EOS5_
FNDA:27,_ZNSt5tupleIJiiEEC2IvLb1EEERKiS3_
FNDA:27,_ZNSt5tupleIJRKiS1_EEC2IvLb1EEES1_S1_
FNDA:27,_ZSt12__get_helperILm1EiJEERT0_RSt11_Tuple_implIXT_EJS0_DpT1_EE
FNDA:27,_ZSt12__get_helperILm0EiJiEERT0_RSt11_Tuple_implIXT_EJS0_DpT1_EE
FNDA:54,_ZSt12__get_helperILm0ERKiJEERT0_RSt11_Tuple_implIXT_EJS2_DpT1_EE
FNDA:27,_ZSt12__get_helperILm1ERKiJEERT0_RSt11_Tuple_implIXT_EJS2_DpT1_EE
FNDA:27,_ZSt12__get_helperILm0ERKiJS1_EERT0_RSt11_Tuple_implIXT_EJS2_DpT1_EE
FNDA:0,_ZSt12__get_helperILm0ERKN5boost16exception_detail10type_info_EJEERT0_RSt11_Tuple_implIXT_EJS5_DpT1_EE
FNDA:27,_ZSt3getILm1EJiiEERNSt13tuple_elementIXT_ESt5tupleIJDpT0_EEE4typeERS4_
FNDA:27,_ZSt3getILm0EJiiEERNSt13tuple_elementIXT_ESt5tupleIJDpT0_EEE4typeERS4_
FNDA:54,_ZSt3getILm0EJRKiEERNSt13tuple_elementIXT_ESt5tupleIJDpT0_EEE4typeERS6_
FNDA:27,_ZSt3getILm1EJRKiS1_EERNSt13tuple_elementIXT_ESt5tupleIJDpT0_EEE4typeERS6_
FNDA:27,_ZSt3getILm0EJRKiS1_EERNSt13tuple_elementIXT_ESt5tupleIJDpT0_EEE4typeERS6_
FNDA:0,_ZSt3getILm0EJRKN5boost16exception_detail10type_info_EEERNSt13tuple_elementIXT_ESt5tupleIJDpT0_EEE4typeERS9_
FNDA:54,_ZSt3getILm0EJRKiEEONSt13tuple_elementIXT_ESt5tupleIJDpT0_EEE4typeEOS6_
FNDA:27,_ZSt3getILm1EJRKiS1_EEONSt13tuple_elementIXT_ESt5tupleIJDpT0_EEE4typeEOS6_
FNDA:27,_ZSt3getILm0EJRKiS1_EEONSt13tuple_elementIXT_ESt5tupleIJDpT0_EEE4typeEOS6_
FNDA:27,_ZSt16forward_as_tupleIJEESt5tupleIJDpOT_EES3_
FNDA:54,_ZSt16forward_as_tupleIJRKiEESt5tupleIJDpOT_EES5_
FNDA:27,_ZNSt16__tuple_concaterISt5tupleIJRKiS2_EESt12_Index_tupleIJLm0EEEJS0_IJS2_EES6_EE5_S_doIJEEES3_OS6_S9_DpOT_
FNDA:27,_ZNSt16__tuple_concaterISt5tupleIJRKiS2_EESt12_Index_tupleIJLm0EEEJS0_IJS2_EEEE5_S_doIJS2_EEES3_OS6_DpOT_
FNDA:27,_ZNSt16__tuple_concaterISt5tupleIJRKiS2_EESt12_Index_tupleIJEEJEE5_S_doIJS2_S2_EEES3_DpOT_
FNDA:27,_ZSt9tuple_catIJSt5tupleIJRKiEES3_EvENSt18__tuple_cat_resultIJDpT_EE6__typeEDpOS5_
FNDA:0,_ZNSt4pairIKN5boost16exception_detail10type_info_ENS0_10shared_ptrINS1_15error_info_baseEEEEC2IJRS3_EJEEESt21piecewise_construct_tSt5tupleIJDpT_EESB_IJDpT0_EE
FNDA:0,_ZNSt4pairIKN5boost16exception_detail10type_info_ENS0_10shared_ptrINS1_15error_info_baseEEEEC2IJRS3_EJLm0EEJEJEEERSt5tupleIJDpT_EERSA_IJDpT1_EESt12_Index_tupleIJXspT0_EEESJ_IJXspT2_EEE
FNF:51
FNH:40
DA:125,162
DA:126,162
DA:160,162
DA:195,54
DA:210,54
DA:211,54
DA:351,108
DA:360,108
DA:361,108
DA:371,0
DA:373,0
DA:608,54
DA:609,54
DA:662,0
DA:947,54
DA:948,54
DA:1303,162
DA:1304,162
DA:1314,162
DA:1315,162
DA:1326,108
DA:1329,108
DA:1459,81
DA:1460,81
DA:1550,54
DA:1556,54
DA:1565,27
DA:1567,27
DA:1575,27
DA:1581,27
DA:1636,0
DA:1641,0
DA:1642,0
DA:1648,0
DA:1651,0
DA:1652,0
DA:1653,0
LF:37
LH:27
end_of_record
SF:/usr/include/c++/7/typeinfo
FN:99,_ZNKSt9type_info4nameEv
FN:115,_ZNKSt9type_info6beforeERKS_
FN:120,_ZNKSt9type_infoeqERKS_
FNDA:0,_ZNKSt9type_info4nameEv
FNDA:0,_ZNKSt9type_info6beforeERKS_
FNDA:0,_ZNKSt9type_infoeqERKS_
FNF:3
FNH:0
DA:99,0
DA:100,0
DA:115,0
DA:116,0
DA:117,0
DA:118,0
DA:120,0
DA:122,0
DA:123,0
DA:124,0
LF:10
LH:0
end_of_record
SF:/usr/local/include/boost/contract/core/exception.hpp
FN:443,_ZN5boost8contract17set_check_failureERKNS_8functionIFvvEEE
FN:508,_ZN5boost8contract24set_precondition_failureERKNS_8functionIFvNS0_4fromEEEE
FN:577,_ZN5boost8contract25set_postcondition_failureERKNS_8functionIFvNS0_4fromEEEE
FN:647,_ZN5boost8contract18set_except_failureERKNS_8functionIFvNS0_4fromEEEE
FN:720,_ZN5boost8contract15set_old_failureERKNS_8functionIFvNS0_4fromEEEE
FN:791,_ZN5boost8contract27set_entry_invariant_failureERKNS_8functionIFvNS0_4fromEEEE
FN:867,_ZN5boost8contract26set_exit_invariant_failureERKNS_8functionIFvNS0_4fromEEEE
FNDA:1,_ZN5boost8contract17set_check_failureERKNS_8functionIFvvEEE
FNDA:1,_ZN5boost8contract24set_precondition_failureERKNS_8functionIFvNS0_4fromEEEE
FNDA:1,_ZN5boost8contract25set_postcondition_failureERKNS_8functionIFvNS0_4fromEEEE
FNDA:1,_ZN5boost8contract18set_except_failureERKNS_8functionIFvNS0_4fromEEEE
FNDA:1,_ZN5boost8contract15set_old_failureERKNS_8functionIFvNS0_4fromEEEE
FNDA:1,_ZN5boost8contract27set_entry_invariant_failureERKNS_8functionIFvNS0_4fromEEEE
FNDA:1,_ZN5boost8contract26set_exit_invariant_failureERKNS_8functionIFvNS0_4fromEEEE
FNF:7
FNH:7
DA:443,1
DA:446,1
DA:508,1
DA:511,1
DA:577,1
DA:581,1
DA:647,1
DA:650,1
DA:720,1
DA:723,1
DA:791,1
DA:795,1
DA:867,1
DA:871,1
LF:14
LH:14
end_of_record
SF:/usr/local/include/boost/contract/detail/inlined/core/exception.hpp
FN:28,_ZN5boost8contract9exceptionD0Ev
FN:28,_ZN5boost8contract9exceptionD2Ev
FN:43,_ZN5boost8contract23bad_virtual_result_castD2Ev
FN:43,_ZN5boost8contract23bad_virtual_result_castD0Ev
FN:46,_ZNK5boost8contract23bad_virtual_result_cast4whatEv
FN:62,_ZN5boost8contract17assertion_failureD2Ev
FN:62,_ZN5boost8contract17assertion_failureD0Ev
FN:65,_ZNK5boost8contract17assertion_failure4whatEv
FN:103,_ZN5boost8contract10exception_15default_handlerILNS1_11failure_keyE2EEEvv
FN:103,_ZN5boost8contract10exception_15default_handlerILNS1_11failure_keyE6EEEvv
FN:103,_ZN5boost8contract10exception_15default_handlerILNS1_11failure_keyE5EEEvv
FN:103,_ZN5boost8contract10exception_15default_handlerILNS1_11failure_keyE3EEEvv
FN:103,_ZN5boost8contract10exception_15default_handlerILNS1_11failure_keyE4EEEvv
FN:103,_ZN5boost8contract10exception_15default_handlerILNS1_11failure_keyE1EEEvv
FN:103,_ZN5boost8contract10exception_15default_handlerILNS1_11failure_keyE0EEEvv
FN:127,_ZN5boost8contract10exception_20default_from_handlerILNS1_11failure_keyE3EEEvNS0_4fromE
FN:127,_ZN5boost8contract10exception_20default_from_handlerILNS1_11failure_keyE2EEEvNS0_4fromE
FN:127,_ZN5boost8contract10exception_20default_from_handlerILNS1_11failure_keyE1EEEvNS0_4fromE
FN:127,_ZN5boost8contract10exception_20default_from_handlerILNS1_11failure_keyE4EEEvNS0_4fromE
FN:127,_ZN5boost8contract10exception_20default_from_handlerILNS1_11failure_keyE6EEEvNS0_4fromE
FN:127,_ZN5boost8contract10exception_20default_from_handlerILNS1_11failure_keyE5EEEvNS0_4fromE
FN:144,_ZN5boost8contract10exception_26set_check_failure_unlockedERKNS_8functionIFvvEEE
FN:151,_ZN5boost8contract10exception_24set_check_failure_lockedERKNS_8functionIFvvEEE
FN:194,_ZN5boost8contract10exception_24set_pre_failure_unlockedERKNS_8functionIFvNS0_4fromEEEE
FN:201,_ZN5boost8contract10exception_22set_pre_failure_lockedERKNS_8functionIFvNS0_4fromEEEE
FN:244,_ZN5boost8contract10exception_25set_post_failure_unlockedERKNS_8functionIFvNS0_4fromEEEE
FN:251,_ZN5boost8contract10exception_23set_post_failure_lockedERKNS_8functionIFvNS0_4fromEEEE
FN:294,_ZN5boost8contract10exception_27set_except_failure_unlockedERKNS_8functionIFvNS0_4fromEEEE
FN:301,_ZN5boost8contract10exception_25set_except_failure_lockedERKNS_8functionIFvNS0_4fromEEEE
FN:345,_ZN5boost8contract10exception_24set_old_failure_unlockedERKNS_8functionIFvNS0_4fromEEEE
FN:352,_ZN5boost8contract10exception_22set_old_failure_lockedERKNS_8functionIFvNS0_4fromEEEE
FN:395,_ZN5boost8contract10exception_30set_entry_inv_failure_unlockedERKNS_8functionIFvNS0_4fromEEEE
FN:402,_ZN5boost8contract10exception_28set_entry_inv_failure_lockedERKNS_8functionIFvNS0_4fromEEEE
FN:447,_ZN5boost8contract10exception_29set_exit_inv_failure_unlockedERKNS_8functionIFvNS0_4fromEEEE
FN:454,_ZN5boost8contract10exception_27set_exit_inv_failure_lockedERKNS_8functionIFvNS0_4fromEEEE
FN:492,_ZN5boost8contract21set_invariant_failureERKNS_8functionIFvNS0_4fromEEEE
FNDA:0,_ZN5boost8contract9exceptionD0Ev
FNDA:3,_ZN5boost8contract9exceptionD2Ev
FNDA:0,_ZN5boost8contract23bad_virtual_result_castD0Ev
FNDA:0,_ZN5boost8contract23bad_virtual_result_castD2Ev
FNDA:0,_ZNK5boost8contract23bad_virtual_result_cast4whatEv
FNDA:0,_ZN5boost8contract17assertion_failureD0Ev
FNDA:3,_ZN5boost8contract17assertion_failureD2Ev
FNDA:0,_ZNK5boost8contract17assertion_failure4whatEv
FNDA:0,_ZN5boost8contract10exception_15default_handlerILNS1_11failure_keyE6EEEvv
FNDA:0,_ZN5boost8contract10exception_15default_handlerILNS1_11failure_keyE5EEEvv
FNDA:0,_ZN5boost8contract10exception_15default_handlerILNS1_11failure_keyE4EEEvv
FNDA:0,_ZN5boost8contract10exception_15default_handlerILNS1_11failure_keyE3EEEvv
FNDA:0,_ZN5boost8contract10exception_15default_handlerILNS1_11failure_keyE2EEEvv
FNDA:0,_ZN5boost8contract10exception_15default_handlerILNS1_11failure_keyE1EEEvv
FNDA:0,_ZN5boost8contract10exception_15default_handlerILNS1_11failure_keyE0EEEvv
FNDA:0,_ZN5boost8contract10exception_20default_from_handlerILNS1_11failure_keyE6EEEvNS0_4fromE
FNDA:0,_ZN5boost8contract10exception_20default_from_handlerILNS1_11failure_keyE5EEEvNS0_4fromE
FNDA:0,_ZN5boost8contract10exception_20default_from_handlerILNS1_11failure_keyE4EEEvNS0_4fromE
FNDA:0,_ZN5boost8contract10exception_20default_from_handlerILNS1_11failure_keyE3EEEvNS0_4fromE
FNDA:0,_ZN5boost8contract10exception_20default_from_handlerILNS1_11failure_keyE2EEEvNS0_4fromE
FNDA:0,_ZN5boost8contract10exception_20default_from_handlerILNS1_11failure_keyE1EEEvNS0_4fromE
FNDA:1,_ZN5boost8contract10exception_26set_check_failure_unlockedERKNS_8functionIFvvEEE
FNDA:1,_ZN5boost8contract10exception_24set_check_failure_lockedERKNS_8functionIFvvEEE
FNDA:1,_ZN5boost8contract10exception_24set_pre_failure_unlockedERKNS_8functionIFvNS0_4fromEEEE
FNDA:1,_ZN5boost8contract10exception_22set_pre_failure_lockedERKNS_8functionIFvNS0_4fromEEEE
FNDA:1,_ZN5boost8contract10exception_25set_post_failure_unlockedERKNS_8functionIFvNS0_4fromEEEE
FNDA:1,_ZN5boost8contract10exception_23set_post_failure_lockedERKNS_8functionIFvNS0_4fromEEEE
FNDA:1,_ZN5boost8contract10exception_27set_except_failure_unlockedERKNS_8functionIFvNS0_4fromEEEE
FNDA:1,_ZN5boost8contract10exception_25set_except_failure_lockedERKNS_8functionIFvNS0_4fromEEEE
FNDA:1,_ZN5boost8contract10exception_24set_old_failure_unlockedERKNS_8functionIFvNS0_4fromEEEE
FNDA:1,_ZN5boost8contract10exception_22set_old_failure_lockedERKNS_8functionIFvNS0_4fromEEEE
FNDA:1,_ZN5boost8contract10exception_30set_entry_inv_failure_unlockedERKNS_8functionIFvNS0_4fromEEEE
FNDA:1,_ZN5boost8contract10exception_28set_entry_inv_failure_lockedERKNS_8functionIFvNS0_4fromEEEE
FNDA:1,_ZN5boost8contract10exception_29set_exit_inv_failure_unlockedERKNS_8functionIFvNS0_4fromEEEE
FNDA:1,_ZN5boost8contract10exception_27set_exit_inv_failure_lockedERKNS_8functionIFvNS0_4fromEEEE
FNDA:1,_ZN5boost8contract21set_invariant_failureERKNS_8functionIFvNS0_4fromEEEE
FNF:36
FNH:17
DA:28,3
DA:43,0
DA:46,0
DA:47,0
DA:62,3
DA:65,0
DA:66,0
DA:103,0
DA:104,0
DA:106,0
DA:107,0
DA:108,0
DA:109,0
DA:110,0
DA:111,0
DA:112,0
DA:115,0
DA:116,0
DA:118,0
DA:119,0
DA:120,0
DA:121,0
DA:123,0
DA:127,0
DA:144,1
DA:146,1
DA:147,1
DA:151,1
DA:153,2
DA:154,2
DA:194,1
DA:196,1
DA:197,1
DA:201,1
DA:203,2
DA:204,2
DA:244,1
DA:246,1
DA:247,1
DA:251,1
DA:253,2
DA:254,2
DA:294,1
DA:296,1
DA:297,1
DA:301,1
DA:303,2
DA:304,2
DA:345,1
DA:347,1
DA:348,1
DA:352,1
DA:354,2
DA:355,2
DA:395,1
DA:397,1
DA:398,1
DA:402,1
DA:404,2
DA:405,2
DA:447,1
DA:449,1
DA:450,1
DA:454,1
DA:456,2
DA:457,2
DA:492,1
DA:494,1
DA:495,1
DA:496,1
LF:70
LH:48
end_of_record
SF:/usr/local/include/boost/contract/detail/static_local_var.hpp
FN:20,_ZN5boost8contract6detail16static_local_varINS0_10exception_21old_failure_mutex_tagENS_5mutexEE3refEv
FN:20,_ZN5boost8contract6detail16static_local_varINS0_10exception_26exit_inv_failure_mutex_tagENS_5mutexEE3refEv
FN:20,_ZN5boost8contract6detail16static_local_varINS0_10exception_27entry_inv_failure_mutex_tagENS_5mutexEE3refEv
FN:20,_ZN5boost8contract6detail16static_local_varINS0_10exception_22post_failure_mutex_tagENS_5mutexEE3refEv
FN:20,_ZN5boost8contract6detail16static_local_varINS0_10exception_23check_failure_mutex_tagENS_5mutexEE3refEv
FN:20,_ZN5boost8contract6detail16static_local_varINS0_10exception_24except_failure_mutex_tagENS_5mutexEE3refEv
FN:20,_ZN5boost8contract6detail16static_local_varINS0_10exception_21pre_failure_mutex_tagENS_5mutexEE3refEv
FN:32,_ZN5boost8contract6detail21static_local_var_initINS0_10exception_29entry_inv_failure_handler_tagENS_8functionIFvNS0_4fromEEEEPS7_XadL_ZNS3_20default_from_handlerILNS3_11failure_keyE5EEEvS6_EEE3refEv
FN:32,_ZN5boost8contract6detail21static_local_var_initINS0_10exception_23pre_failure_handler_tagENS_8functionIFvNS0_4fromEEEEPS7_XadL_ZNS3_20default_from_handlerILNS3_11failure_keyE1EEEvS6_EEE3refEv
FN:32,_ZN5boost8contract6detail21static_local_var_initINS0_10exception_23old_failure_handler_tagENS_8functionIFvNS0_4fromEEEEPS7_XadL_ZNS3_20default_from_handlerILNS3_11failure_keyE4EEEvS6_EEE3refEv
FN:32,_ZN5boost8contract6detail21static_local_var_initINS0_10exception_26except_failure_handler_tagENS_8functionIFvNS0_4fromEEEEPS7_XadL_ZNS3_20default_from_handlerILNS3_11failure_keyE3EEEvS6_EEE3refEv
FN:32,_ZN5boost8contract6detail21static_local_var_initINS0_10exception_25check_failure_handler_tagENS_8functionIFvvEEEPS6_XadL_ZNS3_15default_handlerILNS3_11failure_keyE0EEEvvEEE3refEv
FN:32,_ZN5boost8contract6detail21static_local_var_initINS0_10exception_28exit_inv_failure_handler_tagENS_8functionIFvNS0_4fromEEEEPS7_XadL_ZNS3_20default_from_handlerILNS3_11failure_keyE6EEEvS6_EEE3refEv
FN:32,_ZN5boost8contract6detail21static_local_var_initINS0_10exception_24post_failure_handler_tagENS_8functionIFvNS0_4fromEEEEPS7_XadL_ZNS3_20default_from_handlerILNS3_11failure_keyE2EEEvS6_EEE3refEv
FNDA:1,_ZN5boost8contract6detail16static_local_varINS0_10exception_26exit_inv_failure_mutex_tagENS_5mutexEE3refEv
FNDA:1,_ZN5boost8contract6detail16static_local_varINS0_10exception_27entry_inv_failure_mutex_tagENS_5mutexEE3refEv
FNDA:1,_ZN5boost8contract6detail16static_local_varINS0_10exception_21old_failure_mutex_tagENS_5mutexEE3refEv
FNDA:1,_ZN5boost8contract6detail16static_local_varINS0_10exception_24except_failure_mutex_tagENS_5mutexEE3refEv
FNDA:1,_ZN5boost8contract6detail16static_local_varINS0_10exception_22post_failure_mutex_tagENS_5mutexEE3refEv
FNDA:4,_ZN5boost8contract6detail16static_local_varINS0_10exception_21pre_failure_mutex_tagENS_5mutexEE3refEv
FNDA:1,_ZN5boost8contract6detail16static_local_varINS0_10exception_23check_failure_mutex_tagENS_5mutexEE3refEv
FNDA:1,_ZN5boost8contract6detail21static_local_var_initINS0_10exception_28exit_inv_failure_handler_tagENS_8functionIFvNS0_4fromEEEEPS7_XadL_ZNS3_20default_from_handlerILNS3_11failure_keyE6EEEvS6_EEE3refEv
FNDA:1,_ZN5boost8contract6detail21static_local_var_initINS0_10exception_29entry_inv_failure_handler_tagENS_8functionIFvNS0_4fromEEEEPS7_XadL_ZNS3_20default_from_handlerILNS3_11failure_keyE5EEEvS6_EEE3refEv
FNDA:1,_ZN5boost8contract6detail21static_local_var_initINS0_10exception_23old_failure_handler_tagENS_8functionIFvNS0_4fromEEEEPS7_XadL_ZNS3_20default_from_handlerILNS3_11failure_keyE4EEEvS6_EEE3refEv
FNDA:1,_ZN5boost8contract6detail21static_local_var_initINS0_10exception_26except_failure_handler_tagENS_8functionIFvNS0_4fromEEEEPS7_XadL_ZNS3_20default_from_handlerILNS3_11failure_keyE3EEEvS6_EEE3refEv
FNDA:1,_ZN5boost8contract6detail21static_local_var_initINS0_10exception_24post_failure_handler_tagENS_8functionIFvNS0_4fromEEEEPS7_XadL_ZNS3_20default_from_handlerILNS3_11failure_keyE2EEEvS6_EEE3refEv
FNDA:4,_ZN5boost8contract6detail21static_local_var_initINS0_10exception_23pre_failure_handler_tagENS_8functionIFvNS0_4fromEEEEPS7_XadL_ZNS3_20default_from_handlerILNS3_11failure_keyE1EEEvS6_EEE3refEv
FNDA:1,_ZN5boost8contract6detail21static_local_var_initINS0_10exception_25check_failure_handler_tagENS_8functionIFvvEEEPS6_XadL_ZNS3_15default_handlerILNS3_11failure_keyE0EEEvvEEE3refEv
FNF:14
FNH:14
DA:20,10
DA:21,10
DA:22,10
DA:32,10
DA:33,10
DA:34,10
LF:6
LH:6
end_of_record
SF:/usr/local/include/boost/core/addressof.hpp
FN:38,_ZN5boost9addressofISt5_BindIFPFvRKiS3_EiiEEEEPT_RS8_
FN:38,_ZN5boost9addressofIZN1FC4EvEUlNS_8contract4fromEE0_EEPT_RS5_
FN:38,_ZN5boost9addressofIZN1FC4EvEUlNS_8contract4fromEE_EEPT_RS5_
FN:38,_ZN5boost9addressofIZN1FC4EvEUlvE1_EEPT_RS3_
FNDA:27,_ZN5boost9addressofISt5_BindIFPFvRKiS3_EiiEEEEPT_RS8_
FNDA:1,_ZN5boost9addressofIZN1FC4EvEUlvE1_EEPT_RS3_
FNDA:1,_ZN5boost9addressofIZN1FC4EvEUlNS_8contract4fromEE0_EEPT_RS5_
FNDA:1,_ZN5boost9addressofIZN1FC4EvEUlNS_8contract4fromEE_EEPT_RS5_
FNF:4
FNH:4
DA:38,30
DA:40,30
LF:2
LH:2
end_of_record
SF:/usr/local/include/boost/core/checked_delete.hpp
FN:29,_ZN5boost14checked_deleteINS_9unit_test4data9ds_detail13test_case_genIN34number_theory_with_contracts_suite26parametrized_sign_testcaseENS2_11monomorphic3zipINS7_5arrayIiEESA_EEEEEEvPT_
FN:29,_ZN5boost14checked_deleteINS_9unit_test4data9ds_detail13test_case_genIN34number_theory_with_contracts_suite25parametrized_mcd_testcaseENS2_11monomorphic4gridINS7_5arrayIiEESA_EEEEEEvPT_
FN:29,_ZN5boost14checked_deleteINS_9unit_test4data9ds_detail13test_case_genIN34number_theory_with_contracts_suite25parametrized_div_testcaseENS2_11monomorphic4gridINS7_5arrayIiEESA_EEEEEEvPT_
FN:29,_ZN5boost14checked_deleteINS_9unit_test4data9ds_detail13test_case_genIN34number_theory_with_contracts_suite25parametrized_mcm_testcaseENS2_11monomorphic4gridINS7_5arrayIiEESA_EEEEEEvPT_
FN:29,_ZN5boost14checked_deleteINS_16exception_detail15error_info_baseEEEvPT_
FNDA:1,_ZN5boost14checked_deleteINS_9unit_test4data9ds_detail13test_case_genIN34number_theory_with_contracts_suite25parametrized_mcm_testcaseENS2_11monomorphic4gridINS7_5arrayIiEESA_EEEEEEvPT_
FNDA:1,_ZN5boost14checked_deleteINS_9unit_test4data9ds_detail13test_case_genIN34number_theory_with_contracts_suite25parametrized_mcd_testcaseENS2_11monomorphic4gridINS7_5arrayIiEESA_EEEEEEvPT_
FNDA:1,_ZN5boost14checked_deleteINS_9unit_test4data9ds_detail13test_case_genIN34number_theory_with_contracts_suite25parametrized_div_testcaseENS2_11monomorphic4gridINS7_5arrayIiEESA_EEEEEEvPT_
FNDA:1,_ZN5boost14checked_deleteINS_9unit_test4data9ds_detail13test_case_genIN34number_theory_with_contracts_suite26parametrized_sign_testcaseENS2_11monomorphic3zipINS7_5arrayIiEESA_EEEEEEvPT_
FNDA:0,_ZN5boost14checked_deleteINS_16exception_detail15error_info_baseEEEvPT_
FNF:5
FNH:4
DA:29,4
DA:34,4
DA:35,4
LF:3
LH:3
end_of_record
SF:/usr/local/include/boost/core/demangle.hpp
FN:59,_ZN5boost4core21scoped_demangled_nameC2EPKc
FN:64,_ZN5boost4core21scoped_demangled_nameD2Ev
FN:69,_ZNK5boost4core21scoped_demangled_name3getEv
FN:81,_ZN5boost4core14demangle_allocEPKc
FN:88,_ZN5boost4core13demangle_freeEPKc
FN:93,_ZN5boost4core8demangleB5cxx11EPKc
FNDA:0,_ZN5boost4core21scoped_demangled_nameC2EPKc
FNDA:0,_ZN5boost4core21scoped_demangled_nameD2Ev
FNDA:0,_ZNK5boost4core21scoped_demangled_name3getEv
FNDA:0,_ZN5boost4core14demangle_allocEPKc
FNDA:0,_ZN5boost4core13demangle_freeEPKc
FNDA:0,_ZN5boost4core8demangleB5cxx11EPKc
FNF:6
FNH:0
DA:59,0
DA:60,0
DA:62,0
DA:64,0
DA:65,0
DA:66,0
DA:67,0
DA:69,0
DA:71,0
DA:81,0
DA:83,0
DA:84,0
DA:85,0
DA:88,0
DA:90,0
DA:91,0
DA:93,0
DA:95,0
DA:96,0
DA:97,0
DA:98,0
DA:99,0
LF:22
LH:0
end_of_record
SF:/usr/local/include/boost/exception/current_exception_cast.hpp
FN:21,_ZN5boost22current_exception_castIKNS_9exceptionEEEPT_v
FN:21,_ZN5boost22current_exception_castIKSt9exceptionEEPT_v
FNDA:0,_ZN5boost22current_exception_castIKSt9exceptionEEPT_v
FNDA:0,_ZN5boost22current_exception_castIKNS_9exceptionEEEPT_v
FNF:2
FNH:0
DA:21,0
DA:25,0
DA:27,0
DA:28,0
DA:30,0
DA:32,0
DA:35,0
LF:7
LH:0
end_of_record
SF:/usr/local/include/boost/exception/detail/type_info.hpp
FN:58,_ZN5boost16exception_detail10type_info_C2ERKSt9type_info
FN:65,_ZN5boost16exception_detailltERKNS0_10type_info_ES3_
FNDA:0,_ZN5boost16exception_detail10type_info_C2ERKSt9type_info
FNDA:0,_ZN5boost16exception_detailltERKNS0_10type_info_ES3_
FNF:2
FNH:0
DA:58,0
DA:59,0
DA:61,0
DA:65,0
DA:67,0
LF:5
LH:0
end_of_record
SF:/usr/local/include/boost/exception/diagnostic_information.hpp
FN:42,_ZN5boost40current_exception_diagnostic_informationB5cxx11Eb
FN:90,_ZN5boost16exception_detail26get_diagnostic_informationERKNS_9exceptionEPKc
FN:113,_ZN5boost16exception_detail27diagnostic_information_implB5cxx11EPKNS_9exceptionEPKSt9exceptionbb
FNDA:0,_ZN5boost40current_exception_diagnostic_informationB5cxx11Eb
FNDA:0,_ZN5boost16exception_detail26get_diagnostic_informationERKNS_9exceptionEPKc
FNDA:0,_ZN5boost16exception_detail27diagnostic_information_implB5cxx11EPKNS_9exceptionEPKSt9exceptionbb
FNF:3
FNH:0
DA:42,0
DA:44,0
DA:45,0
DA:46,0
DA:47,0
DA:49,0
DA:90,0
DA:96,0
DA:97,0
DA:98,0
DA:99,0
DA:100,0
DA:101,0
DA:104,0
DA:106,0
DA:113,0
DA:115,0
DA:116,0
DA:118,0
DA:119,0
DA:120,0
DA:121,0
DA:123,0
DA:124,0
DA:126,0
DA:127,0
DA:128,0
DA:130,0
DA:131,0
DA:133,0
DA:134,0
DA:135,0
DA:136,0
DA:137,0
DA:140,0
DA:142,0
DA:143,0
DA:144,0
DA:146,0
DA:147,0
DA:148,0
DA:150,0
DA:151,0
DA:155,0
DA:156,0
DA:157,0
DA:159,0
DA:160,0
DA:161,0
DA:162,0
DA:163,0
DA:164,0
DA:165,0
LF:53
LH:0
end_of_record
SF:/usr/local/include/boost/exception/exception.hpp
FN:35,_ZN5boost16exception_detail12refcount_ptrINS0_20error_info_containerEEC2Ev
FN:40,_ZN5boost16exception_detail12refcount_ptrINS0_20error_info_containerEED2Ev
FN:45,_ZN5boost16exception_detail12refcount_ptrINS0_20error_info_containerEEC2ERKS3_
FN:52,_ZN5boost16exception_detail12refcount_ptrINS0_20error_info_containerEEaSERKS3_
FN:59,_ZN5boost16exception_detail12refcount_ptrINS0_20error_info_containerEE5adoptEPS2_
FN:67,_ZNK5boost16exception_detail12refcount_ptrINS0_20error_info_containerEE3getEv
FN:77,_ZN5boost16exception_detail12refcount_ptrINS0_20error_info_containerEE7add_refEv
FN:84,_ZN5boost16exception_detail12refcount_ptrINS0_20error_info_containerEE7releaseEv
FN:162,_ZN5boost16exception_detail20error_info_containerC2Ev
FN:173,_ZN5boost16exception_detail20error_info_containerD2Ev
FN:225,_ZN5boost9exceptionC2ERKS0_
FN:235,_ZN5boost9exceptionC2Ev
FN:303,_ZN5boost9exceptionD2Ev
FN:303,_ZN5boost9exceptionD0Ev
FN:348,_ZN5boost16exception_detail19error_info_injectorINS_10lock_errorEEC2ERKS3_
FN:348,_ZN5boost16exception_detail19error_info_injectorINS_21thread_resource_errorEEC2ERKS3_
FN:353,_ZN5boost16exception_detail19error_info_injectorINS_10lock_errorEEC2ERKS2_
FN:353,_ZN5boost16exception_detail19error_info_injectorINS_21thread_resource_errorEEC2ERKS2_
FN:358,_ZN5boost16exception_detail19error_info_injectorINS_21thread_resource_errorEED2Ev
FN:358,_ZN5boost16exception_detail19error_info_injectorINS_10lock_errorEED0Ev
FN:358,_ZN5boost16exception_detail19error_info_injectorINS_10lock_errorEED2Ev
FN:358,_ZN5boost16exception_detail19error_info_injectorINS_21thread_resource_errorEED0Ev
FN:403,_ZN5boost17enable_error_infoINS_21thread_resource_errorEEENS_16exception_detail29enable_error_info_return_typeIT_E4typeERKS4_
FN:403,_ZN5boost17enable_error_infoINS_10lock_errorEEENS_16exception_detail29enable_error_info_return_typeIT_E4typeERKS4_
FN:420,_ZN5boost16exception_detail10clone_baseC2ERKS1_
FN:420,_ZN5boost16exception_detail10clone_baseC2Ev
FN:428,_ZN5boost16exception_detail10clone_baseD0Ev
FN:428,_ZN5boost16exception_detail10clone_baseD2Ev
FN:440,_ZN5boost16exception_detail20copy_boost_exceptionEPNS_9exceptionEPKS1_
FN:464,_ZN5boost16exception_detail10clone_implINS0_19error_info_injectorINS_10lock_errorEEEEC1ERKS5_
FN:464,_ZN5boost16exception_detail10clone_implINS0_19error_info_injectorINS_21thread_resource_errorEEEEC1ERKS5_
FN:469,_ZN5boost16exception_detail10clone_implINS0_19error_info_injectorINS_21thread_resource_errorEEEEC1ERKS5_NS5_9clone_tagE
FN:469,_ZN5boost16exception_detail10clone_implINS0_19error_info_injectorINS_10lock_errorEEEEC1ERKS5_NS5_9clone_tagE
FN:478,_ZN5boost16exception_detail10clone_implINS0_19error_info_injectorINS_21thread_resource_errorEEEEC1ERKS4_
FN:478,_ZN5boost16exception_detail10clone_implINS0_19error_info_injectorINS_10lock_errorEEEEC1ERKS4_
FN:484,_ZN5boost16exception_detail10clone_implINS0_19error_info_injectorINS_21thread_resource_errorEEEED0Ev
FN:484,_ZN5boost16exception_detail10clone_implINS0_19error_info_injectorINS_10lock_errorEEEED0Ev
FN:484,_ZN5boost16exception_detail10clone_implINS0_19error_info_injectorINS_10lock_errorEEEED1Ev
FN:484,_ZN5boost16exception_detail10clone_implINS0_19error_info_injectorINS_21thread_resource_errorEEEED1Ev
FN:491,_ZNK5boost16exception_detail10clone_implINS0_19error_info_injectorINS_21thread_resource_errorEEEE5cloneEv
FN:491,_ZNK5boost16exception_detail10clone_implINS0_19error_info_injectorINS_10lock_errorEEEE5cloneEv
FN:497,_ZNK5boost16exception_detail10clone_implINS0_19error_info_injectorINS_21thread_resource_errorEEEE7rethrowEv
FN:497,_ZNK5boost16exception_detail10clone_implINS0_19error_info_injectorINS_10lock_errorEEEE7rethrowEv
FN:512,_ZN5boost24enable_current_exceptionINS_16exception_detail19error_info_injectorINS_10lock_errorEEEEENS1_10clone_implIT_EERKS6_
FN:512,_ZN5boost24enable_current_exceptionINS_16exception_detail19error_info_injectorINS_21thread_resource_errorEEEEENS1_10clone_implIT_EERKS6_
FNDA:0,_ZN5boost16exception_detail12refcount_ptrINS0_20error_info_containerEEC2Ev
FNDA:0,_ZN5boost16exception_detail12refcount_ptrINS0_20error_info_containerEED2Ev
FNDA:0,_ZN5boost16exception_detail12refcount_ptrINS0_20error_info_containerEEC2ERKS3_
FNDA:0,_ZN5boost16exception_detail12refcount_ptrINS0_20error_info_containerEEaSERKS3_
FNDA:0,_ZN5boost16exception_detail12refcount_ptrINS0_20error_info_containerEE5adoptEPS2_
FNDA:0,_ZNK5boost16exception_detail12refcount_ptrINS0_20error_info_containerEE3getEv
FNDA:0,_ZN5boost16exception_detail12refcount_ptrINS0_20error_info_containerEE7add_refEv
FNDA:0,_ZN5boost16exception_detail12refcount_ptrINS0_20error_info_containerEE7releaseEv
FNDA:0,_ZN5boost16exception_detail20error_info_containerC2Ev
FNDA:0,_ZN5boost16exception_detail20error_info_containerD2Ev
FNDA:0,_ZN5boost9exceptionC2ERKS0_
FNDA:0,_ZN5boost9exceptionC2Ev
FNDA:0,_ZN5boost9exceptionD0Ev
FNDA:0,_ZN5boost9exceptionD2Ev
FNDA:0,_ZN5boost16exception_detail19error_info_injectorINS_10lock_errorEEC2ERKS3_
FNDA:0,_ZN5boost16exception_detail19error_info_injectorINS_21thread_resource_errorEEC2ERKS3_
FNDA:0,_ZN5boost16exception_detail19error_info_injectorINS_10lock_errorEEC2ERKS2_
FNDA:0,_ZN5boost16exception_detail19error_info_injectorINS_21thread_resource_errorEEC2ERKS2_
FNDA:0,_ZN5boost16exception_detail19error_info_injectorINS_10lock_errorEED0Ev
FNDA:0,_ZN5boost16exception_detail19error_info_injectorINS_10lock_errorEED2Ev
FNDA:0,_ZN5boost16exception_detail19error_info_injectorINS_21thread_resource_errorEED0Ev
FNDA:0,_ZN5boost16exception_detail19error_info_injectorINS_21thread_resource_errorEED2Ev
FNDA:0,_ZN5boost17enable_error_infoINS_10lock_errorEEENS_16exception_detail29enable_error_info_return_typeIT_E4typeERKS4_
FNDA:0,_ZN5boost17enable_error_infoINS_21thread_resource_errorEEENS_16exception_detail29enable_error_info_return_typeIT_E4typeERKS4_
FNDA:0,_ZN5boost16exception_detail10clone_baseC2Ev
FNDA:0,_ZN5boost16exception_detail10clone_baseC2ERKS1_
FNDA:0,_ZN5boost16exception_detail10clone_baseD0Ev
FNDA:0,_ZN5boost16exception_detail10clone_baseD2Ev
FNDA:0,_ZN5boost16exception_detail20copy_boost_exceptionEPNS_9exceptionEPKS1_
FNDA:0,_ZN5boost16exception_detail10clone_implINS0_19error_info_injectorINS_10lock_errorEEEEC1ERKS5_
FNDA:0,_ZN5boost16exception_detail10clone_implINS0_19error_info_injectorINS_21thread_resource_errorEEEEC1ERKS5_
FNDA:0,_ZN5boost16exception_detail10clone_implINS0_19error_info_injectorINS_21thread_resource_errorEEEEC1ERKS5_NS5_9clone_tagE
FNDA:0,_ZN5boost16exception_detail10clone_implINS0_19error_info_injectorINS_10lock_errorEEEEC1ERKS5_NS5_9clone_tagE
FNDA:0,_ZN5boost16exception_detail10clone_implINS0_19error_info_injectorINS_10lock_errorEEEEC1ERKS4_
FNDA:0,_ZN5boost16exception_detail10clone_implINS0_19error_info_injectorINS_21thread_resource_errorEEEEC1ERKS4_
FNDA:0,_ZN5boost16exception_detail10clone_implINS0_19error_info_injectorINS_10lock_errorEEEED0Ev
FNDA:0,_ZN5boost16exception_detail10clone_implINS0_19error_info_injectorINS_10lock_errorEEEED1Ev
FNDA:0,_ZN5boost16exception_detail10clone_implINS0_19error_info_injectorINS_21thread_resource_errorEEEED0Ev
FNDA:0,_ZN5boost16exception_detail10clone_implINS0_19error_info_injectorINS_21thread_resource_errorEEEED1Ev
FNDA:0,_ZNK5boost16exception_detail10clone_implINS0_19error_info_injectorINS_21thread_resource_errorEEEE5cloneEv
FNDA:0,_ZNK5boost16exception_detail10clone_implINS0_19error_info_injectorINS_10lock_errorEEEE5cloneEv
FNDA:0,_ZNK5boost16exception_detail10clone_implINS0_19error_info_injectorINS_21thread_resource_errorEEEE7rethrowEv
FNDA:0,_ZNK5boost16exception_detail10clone_implINS0_19error_info_injectorINS_10lock_errorEEEE7rethrowEv
FNDA:0,_ZN5boost24enable_current_exceptionINS_16exception_detail19error_info_injectorINS_10lock_errorEEEEENS1_10clone_implIT_EERKS6_
FNDA:0,_ZN5boost24enable_current_exceptionINS_16exception_detail19error_info_injectorINS_21thread_resource_errorEEEEENS1_10clone_implIT_EERKS6_
FNF:45
FNH:0
DA:35,0
DA:36,0
DA:38,0
DA:40,0
DA:42,0
DA:43,0
DA:45,0
DA:46,0
DA:48,0
DA:49,0
DA:52,0
DA:54,0
DA:55,0
DA:59,0
DA:61,0
DA:62,0
DA:63,0
DA:64,0
DA:67,0
DA:69,0
DA:77,0
DA:79,0
DA:80,0
DA:81,0
DA:84,0
DA:86,0
DA:87,0
DA:88,0
DA:162,0
DA:173,0
DA:174,0
DA:175,0
DA:225,0
DA:235,0
DA:238,0
DA:240,0
DA:303,0
DA:304,0
DA:306,0
DA:348,0
DA:353,0
DA:354,0
DA:356,0
DA:358,0
DA:360,0
DA:403,0
DA:406,0
DA:420,0
DA:428,0
DA:429,0
DA:430,0
DA:440,0
DA:442,0
DA:443,0
DA:444,0
DA:445,0
DA:446,0
DA:447,0
DA:448,0
DA:449,0
DA:464,0
DA:469,0
DA:470,0
DA:472,0
DA:473,0
DA:478,0
DA:479,0
DA:481,0
DA:482,0
DA:484,0
DA:486,0
DA:491,0
DA:493,0
DA:497,0
DA:499,0
DA:512,0
DA:514,0
LF:77
LH:0
end_of_record
SF:/usr/local/include/boost/exception/get_error_info.hpp
FN:56,_ZN5boost16exception_detail8get_infoINS_10error_infoINS_15throw_function_EPKcEEE3getERKNS_9exceptionE
FN:68,_ZN5boost16exception_detail8get_infoINS_10error_infoINS_11throw_file_EPKcEEE3getERKNS_9exceptionE
FN:80,_ZN5boost16exception_detail8get_infoINS_10error_infoINS_11throw_line_EiEEE3getERKNS_9exceptionE
FN:120,_ZN5boost14get_error_infoINS_10error_infoINS_15throw_function_EPKcEEKNS_9exceptionEEENS_16exception_detail26get_error_info_return_typeIT0_NT_10value_typeEE4typeERSA_
FN:120,_ZN5boost14get_error_infoINS_10error_infoINS_11throw_line_EiEEKNS_9exceptionEEENS_16exception_detail26get_error_info_return_typeIT0_NT_10value_typeEE4typeERS8_
FN:120,_ZN5boost14get_error_infoINS_10error_infoINS_11throw_file_EPKcEEKNS_9exceptionEEENS_16exception_detail26get_error_info_return_typeIT0_NT_10value_typeEE4typeERSA_
FNDA:0,_ZN5boost16exception_detail8get_infoINS_10error_infoINS_15throw_function_EPKcEEE3getERKNS_9exceptionE
FNDA:0,_ZN5boost16exception_detail8get_infoINS_10error_infoINS_11throw_file_EPKcEEE3getERKNS_9exceptionE
FNDA:0,_ZN5boost16exception_detail8get_infoINS_10error_infoINS_11throw_line_EiEEE3getERKNS_9exceptionE
FNDA:0,_ZN5boost14get_error_infoINS_10error_infoINS_15throw_function_EPKcEEKNS_9exceptionEEENS_16exception_detail26get_error_info_return_typeIT0_NT_10value_typeEE4typeERSA_
FNDA:0,_ZN5boost14get_error_infoINS_10error_infoINS_11throw_line_EiEEKNS_9exceptionEEENS_16exception_detail26get_error_info_return_typeIT0_NT_10value_typeEE4typeERS8_
FNDA:0,_ZN5boost14get_error_infoINS_10error_infoINS_11throw_file_EPKcEEKNS_9exceptionEEENS_16exception_detail26get_error_info_return_typeIT0_NT_10value_typeEE4typeERSA_
FNF:6
FNH:0
DA:56,0
DA:58,0
DA:68,0
DA:70,0
DA:80,0
DA:82,0
DA:120,0
DA:122,0
DA:123,0
DA:125,0
LF:10
LH:0
end_of_record
SF:/usr/local/include/boost/exception/info.hpp
FN:60,_ZN5boost16exception_detail25error_info_container_implC2Ev
FN:65,_ZN5boost16exception_detail25error_info_container_implD2Ev
FN:70,_ZN5boost16exception_detail25error_info_container_impl3setERKNS_10shared_ptrINS0_15error_info_baseEEERKNS0_10type_info_E
FN:78,_ZNK5boost16exception_detail25error_info_container_impl3getERKNS0_10type_info_E
FN:93,_ZNK5boost16exception_detail25error_info_container_impl22diagnostic_informationEPKc
FN:122,_ZNK5boost16exception_detail25error_info_container_impl7add_refEv
FN:128,_ZNK5boost16exception_detail25error_info_container_impl7releaseEv
FN:140,_ZNK5boost16exception_detail25error_info_container_impl5cloneEv
FNDA:0,_ZN5boost16exception_detail25error_info_container_implC2Ev
FNDA:0,_ZN5boost16exception_detail25error_info_container_implD2Ev
FNDA:0,_ZN5boost16exception_detail25error_info_container_impl3setERKNS_10shared_ptrINS0_15error_info_baseEEERKNS0_10type_info_E
FNDA:0,_ZNK5boost16exception_detail25error_info_container_impl3getERKNS0_10type_info_E
FNDA:0,_ZNK5boost16exception_detail25error_info_container_impl22diagnostic_informationEPKc
FNDA:0,_ZNK5boost16exception_detail25error_info_container_impl7add_refEv
FNDA:0,_ZNK5boost16exception_detail25error_info_container_impl7releaseEv
FNDA:0,_ZNK5boost16exception_detail25error_info_container_impl5cloneEv
FNF:8
FNH:0
DA:60,0
DA:61,0
DA:63,0
DA:65,0
DA:66,0
DA:67,0
DA:70,0
DA:72,0
DA:73,0
DA:74,0
DA:75,0
DA:78,0
DA:80,0
DA:81,0
DA:83,0
DA:85,0
DA:87,0
DA:89,0
DA:93,0
DA:95,0
DA:97,0
DA:98,0
DA:99,0
DA:101,0
DA:102,0
DA:104,0
DA:106,0
DA:122,0
DA:124,0
DA:125,0
DA:128,0
DA:130,0
DA:131,0
DA:134,0
DA:135,0
DA:140,0
DA:142,0
DA:143,0
DA:144,0
DA:145,0
DA:147,0
DA:148,0
DA:150,0
LF:43
LH:0
end_of_record
SF:/usr/local/include/boost/function/function_base.hpp
FN:259,_ZN5boost6detail8function22functor_manager_commonIPFvvEE10manage_ptrERKNS1_15function_bufferERS6_NS1_30functor_manager_operation_typeE
FN:259,_ZN5boost6detail8function22functor_manager_commonIPFvNS_8contract4fromEEE10manage_ptrERKNS1_15function_bufferERS8_NS1_30functor_manager_operation_typeE
FN:283,_ZN5boost6detail8function22functor_manager_commonIZN1FC4EvEUlvE1_E12manage_smallERKNS1_15function_bufferERS6_NS1_30functor_manager_operation_typeE
FN:283,_ZN5boost6detail8function22functor_manager_commonIZN1FC4EvEUlNS_8contract4fromEE0_E12manage_smallERKNS1_15function_bufferERS8_NS1_30functor_manager_operation_typeE
FN:283,_ZN5boost6detail8function22functor_manager_commonIZN1FC4EvEUlNS_8contract4fromEE_E12manage_smallERKNS1_15function_bufferERS8_NS1_30functor_manager_operation_typeE
FN:283,_ZN5boost6detail8function22functor_manager_commonISt5_BindIFPFvRKiS5_EiiEEE12manage_smallERKNS1_15function_bufferERSB_NS1_30functor_manager_operation_typeE
FN:322,_ZN5boost6detail8function15functor_managerIPFvvEE7managerERKNS1_15function_bufferERS6_NS1_30functor_manager_operation_typeENS1_16function_ptr_tagE
FN:322,_ZN5boost6detail8function15functor_managerIPFvNS_8contract4fromEEE7managerERKNS1_15function_bufferERS8_NS1_30functor_manager_operation_typeENS1_16function_ptr_tagE
FN:330,_ZN5boost6detail8function15functor_managerIZN1FC4EvEUlNS_8contract4fromEE0_E7managerERKNS1_15function_bufferERS8_NS1_30functor_manager_operation_typeEN4mpl_5bool_ILb1EEE
FN:330,_ZN5boost6detail8function15functor_managerISt5_BindIFPFvRKiS5_EiiEEE7managerERKNS1_15function_bufferERSB_NS1_30functor_manager_operation_typeEN4mpl_5bool_ILb1EEE
FN:330,_ZN5boost6detail8function15functor_managerIZN1FC4EvEUlNS_8contract4fromEE_E7managerERKNS1_15function_bufferERS8_NS1_30functor_manager_operation_typeEN4mpl_5bool_ILb1EEE
FN:330,_ZN5boost6detail8function15functor_managerIZN1FC4EvEUlvE1_E7managerERKNS1_15function_bufferERS6_NS1_30functor_manager_operation_typeEN4mpl_5bool_ILb1EEE
FN:376,_ZN5boost6detail8function15functor_managerIZN1FC4EvEUlvE1_E7managerERKNS1_15function_bufferERS6_NS1_30functor_manager_operation_typeENS1_16function_obj_tagE
FN:376,_ZN5boost6detail8function15functor_managerIZN1FC4EvEUlNS_8contract4fromEE_E7managerERKNS1_15function_bufferERS8_NS1_30functor_manager_operation_typeENS1_16function_obj_tagE
FN:376,_ZN5boost6detail8function15functor_managerIZN1FC4EvEUlNS_8contract4fromEE0_E7managerERKNS1_15function_bufferERS8_NS1_30functor_manager_operation_typeENS1_16function_obj_tagE
FN:376,_ZN5boost6detail8function15functor_managerISt5_BindIFPFvRKiS5_EiiEEE7managerERKNS1_15function_bufferERSB_NS1_30functor_manager_operation_typeENS1_16function_obj_tagE
FN:395,_ZN5boost6detail8function15functor_managerIZN1FC4EvEUlNS_8contract4fromEE0_E6manageERKNS1_15function_bufferERS8_NS1_30functor_manager_operation_typeE
FN:395,_ZN5boost6detail8function15functor_managerISt5_BindIFPFvRKiS5_EiiEEE6manageERKNS1_15function_bufferERSB_NS1_30functor_manager_operation_typeE
FN:395,_ZN5boost6detail8function15functor_managerIPFvvEE6manageERKNS1_15function_bufferERS6_NS1_30functor_manager_operation_typeE
FN:395,_ZN5boost6detail8function15functor_managerIZN1FC4EvEUlvE1_E6manageERKNS1_15function_bufferERS6_NS1_30functor_manager_operation_typeE
FN:395,_ZN5boost6detail8function15functor_managerIZN1FC4EvEUlNS_8contract4fromEE_E6manageERKNS1_15function_bufferERS8_NS1_30functor_manager_operation_typeE
FN:395,_ZN5boost6detail8function15functor_managerIPFvNS_8contract4fromEEE6manageERKNS1_15function_bufferERS8_NS1_30functor_manager_operation_typeE
FN:611,_ZN5boost13function_baseC2Ev
FN:614,_ZNK5boost13function_base5emptyEv
FN:697,_ZNK5boost13function_base28has_trivial_copy_and_destroyEv
FN:871,_ZN5boost6detail8function16has_empty_targetEz
FNDA:6,_ZN5boost6detail8function22functor_manager_commonIPFvNS_8contract4fromEEE10manage_ptrERKNS1_15function_bufferERS8_NS1_30functor_manager_operation_typeE
FNDA:4,_ZN5boost6detail8function22functor_manager_commonIPFvvEE10manage_ptrERKNS1_15function_bufferERS6_NS1_30functor_manager_operation_typeE
FNDA:0,_ZN5boost6detail8function22functor_manager_commonISt5_BindIFPFvRKiS5_EiiEEE12manage_smallERKNS1_15function_bufferERSB_NS1_30functor_manager_operation_typeE
FNDA:0,_ZN5boost6detail8function22functor_manager_commonIZN1FC4EvEUlvE1_E12manage_smallERKNS1_15function_bufferERS6_NS1_30functor_manager_operation_typeE
FNDA:0,_ZN5boost6detail8function22functor_manager_commonIZN1FC4EvEUlNS_8contract4fromEE0_E12manage_smallERKNS1_15function_bufferERS8_NS1_30functor_manager_operation_typeE
FNDA:0,_ZN5boost6detail8function22functor_manager_commonIZN1FC4EvEUlNS_8contract4fromEE_E12manage_smallERKNS1_15function_bufferERS8_NS1_30functor_manager_operation_typeE
FNDA:6,_ZN5boost6detail8function15functor_managerIPFvNS_8contract4fromEEE7managerERKNS1_15function_bufferERS8_NS1_30functor_manager_operation_typeENS1_16function_ptr_tagE
FNDA:4,_ZN5boost6detail8function15functor_managerIPFvvEE7managerERKNS1_15function_bufferERS6_NS1_30functor_manager_operation_typeENS1_16function_ptr_tagE
FNDA:0,_ZN5boost6detail8function15functor_managerISt5_BindIFPFvRKiS5_EiiEEE7managerERKNS1_15function_bufferERSB_NS1_30functor_manager_operation_typeEN4mpl_5bool_ILb1EEE
FNDA:0,_ZN5boost6detail8function15functor_managerIZN1FC4EvEUlvE1_E7managerERKNS1_15function_bufferERS6_NS1_30functor_manager_operation_typeEN4mpl_5bool_ILb1EEE
FNDA:0,_ZN5boost6detail8function15functor_managerIZN1FC4EvEUlNS_8contract4fromEE0_E7managerERKNS1_15function_bufferERS8_NS1_30functor_manager_operation_typeEN4mpl_5bool_ILb1EEE
FNDA:0,_ZN5boost6detail8function15functor_managerIZN1FC4EvEUlNS_8contract4fromEE_E7managerERKNS1_15function_bufferERS8_NS1_30functor_manager_operation_typeEN4mpl_5bool_ILb1EEE
FNDA:0,_ZN5boost6detail8function15functor_managerISt5_BindIFPFvRKiS5_EiiEEE7managerERKNS1_15function_bufferERSB_NS1_30functor_manager_operation_typeENS1_16function_obj_tagE
FNDA:0,_ZN5boost6detail8function15functor_managerIZN1FC4EvEUlvE1_E7managerERKNS1_15function_bufferERS6_NS1_30functor_manager_operation_typeENS1_16function_obj_tagE
FNDA:0,_ZN5boost6detail8function15functor_managerIZN1FC4EvEUlNS_8contract4fromEE0_E7managerERKNS1_15function_bufferERS8_NS1_30functor_manager_operation_typeENS1_16function_obj_tagE
FNDA:0,_ZN5boost6detail8function15functor_managerIZN1FC4EvEUlNS_8contract4fromEE_E7managerERKNS1_15function_bufferERS8_NS1_30functor_manager_operation_typeENS1_16function_obj_tagE
FNDA:0,_ZN5boost6detail8function15functor_managerISt5_BindIFPFvRKiS5_EiiEEE6manageERKNS1_15function_bufferERSB_NS1_30functor_manager_operation_typeE
FNDA:6,_ZN5boost6detail8function15functor_managerIPFvNS_8contract4fromEEE6manageERKNS1_15function_bufferERS8_NS1_30functor_manager_operation_typeE
FNDA:4,_ZN5boost6detail8function15functor_managerIPFvvEE6manageERKNS1_15function_bufferERS6_NS1_30functor_manager_operation_typeE
FNDA:0,_ZN5boost6detail8function15functor_managerIZN1FC4EvEUlvE1_E6manageERKNS1_15function_bufferERS6_NS1_30functor_manager_operation_typeE
FNDA:0,_ZN5boost6detail8function15functor_managerIZN1FC4EvEUlNS_8contract4fromEE0_E6manageERKNS1_15function_bufferERS8_NS1_30functor_manager_operation_typeE
FNDA:0,_ZN5boost6detail8function15functor_managerIZN1FC4EvEUlNS_8contract4fromEE_E6manageERKNS1_15function_bufferERS8_NS1_30functor_manager_operation_typeE
FNDA:726,_ZN5boost13function_baseC2Ev
FNDA:809,_ZNK5boost13function_base5emptyEv
FNDA:411,_ZNK5boost13function_base28has_trivial_copy_and_destroyEv
FNDA:183,_ZN5boost6detail8function16has_empty_targetEz
FNF:26
FNH:10
DA:259,10
DA:262,10
DA:263,0
DA:264,10
DA:265,0
DA:266,0
DA:267,10
DA:268,10
DA:269,0
DA:270,0
DA:271,0
DA:273,0
DA:275,0
DA:276,0
DA:277,0
DA:279,10
DA:283,0
DA:286,0
DA:287,0
DA:289,0
DA:291,0
DA:292,0
DA:295,0
DA:296,0
DA:298,0
DA:301,0
DA:302,0
DA:303,0
DA:305,0
DA:307,0
DA:308,0
DA:309,0
DA:311,0
DA:322,10
DA:325,10
DA:326,10
DA:330,0
DA:333,0
DA:334,0
DA:376,0
DA:379,0
DA:381,0
DA:395,10
DA:399,10
DA:400,0
DA:401,0
DA:402,0
DA:403,0
DA:404,0
DA:406,10
DA:407,10
DA:408,10
DA:611,726
DA:614,809
DA:697,411
DA:698,411
DA:871,183
DA:873,183
LF:58
LH:20
end_of_record
SF:/usr/local/include/boost/function/function_template.hpp
FN:113,_ZN5boost6detail8function22void_function_invoker0IPFvvEvE6invokeERNS1_15function_bufferE
FN:113,_ZN5boost6detail8function22void_function_invoker1IPFvNS_8contract4fromEEvS4_E6invokeERNS1_15function_bufferES4_
FN:150,_ZN5boost6detail8function26void_function_obj_invoker1IZN1FC4EvEUlNS_8contract4fromEE0_vS5_E6invokeERNS1_15function_bufferES5_
FN:150,_ZN5boost6detail8function26void_function_obj_invoker0IZN1FC4EvEUlvE1_vE6invokeERNS1_15function_bufferE
FN:150,_ZN5boost6detail8function26void_function_obj_invoker0ISt5_BindIFPFvRKiS5_EiiEEvE6invokeERNS1_15function_bufferE
FN:150,_ZN5boost6detail8function26void_function_obj_invoker1IZN1FC4EvEUlNS_8contract4fromEE_vS5_E6invokeERNS1_15function_bufferES5_
FN:495,_ZNK5boost6detail8function13basic_vtable1IvNS_8contract4fromEE9assign_toIZN1FC4EvEUlS4_E_EEbT_RNS1_15function_bufferE
FN:495,_ZNK5boost6detail8function13basic_vtable1IvNS_8contract4fromEE9assign_toIZN1FC4EvEUlS4_E0_EEbT_RNS1_15function_bufferE
FN:495,_ZNK5boost6detail8function13basic_vtable0IvE9assign_toISt5_BindIFPFvRKiS7_EiiEEEEbT_RNS1_15function_bufferE
FN:495,_ZNK5boost6detail8function13basic_vtable1IvNS_8contract4fromEE9assign_toIPFvS4_EEEbT_RNS1_15function_bufferE
FN:495,_ZNK5boost6detail8function13basic_vtable0IvE9assign_toIPFvvEEEbT_RNS1_15function_bufferE
FN:495,_ZNK5boost6detail8function13basic_vtable0IvE9assign_toIZN1FC4EvEUlvE1_EEbT_RNS1_15function_bufferE
FN:507,_ZNK5boost6detail8function13basic_vtable1IvNS_8contract4fromEE5clearERNS1_15function_bufferE
FN:507,_ZNK5boost6detail8function13basic_vtable0IvE5clearERNS1_15function_bufferE
FN:517,_ZNK5boost6detail8function13basic_vtable0IvE9assign_toIPFvvEEEbT_RNS1_15function_bufferENS1_16function_ptr_tagE
FN:517,_ZNK5boost6detail8function13basic_vtable1IvNS_8contract4fromEE9assign_toIPFvS4_EEEbT_RNS1_15function_bufferENS1_16function_ptr_tagE
FN:570,_ZNK5boost6detail8function13basic_vtable0IvE14assign_functorISt5_BindIFPFvRKiS7_EiiEEEEvT_RNS1_15function_bufferEN4mpl_5bool_ILb1EEE
FN:570,_ZNK5boost6detail8function13basic_vtable0IvE14assign_functorIZN1FC4EvEUlvE1_EEvT_RNS1_15function_bufferEN4mpl_5bool_ILb1EEE
FN:570,_ZNK5boost6detail8function13basic_vtable1IvNS_8contract4fromEE14assign_functorIZN1FC4EvEUlS4_E0_EEvT_RNS1_15function_bufferEN4mpl_5bool_ILb1EEE
FN:570,_ZNK5boost6detail8function13basic_vtable1IvNS_8contract4fromEE14assign_functorIZN1FC4EvEUlS4_E_EEvT_RNS1_15function_bufferEN4mpl_5bool_ILb1EEE
FN:614,_ZNK5boost6detail8function13basic_vtable0IvE9assign_toIZN1FC4EvEUlvE1_EEbT_RNS1_15function_bufferENS1_16function_obj_tagE
FN:614,_ZNK5boost6detail8function13basic_vtable1IvNS_8contract4fromEE9assign_toIZN1FC4EvEUlS4_E_EEbT_RNS1_15function_bufferENS1_16function_obj_tagE
FN:614,_ZNK5boost6detail8function13basic_vtable1IvNS_8contract4fromEE9assign_toIZN1FC4EvEUlS4_E0_EEbT_RNS1_15function_bufferENS1_16function_obj_tagE
FN:614,_ZNK5boost6detail8function13basic_vtable0IvE9assign_toISt5_BindIFPFvRKiS7_EiiEEEEbT_RNS1_15function_bufferENS1_16function_obj_tagE
FN:682,_ZNK5boost9function0IvE10get_vtableEv
FN:682,_ZNK5boost9function1IvNS_8contract4fromEE10get_vtableEv
FN:711,_ZN5boost9function1IvNS_8contract4fromEEC2Ev
FN:711,_ZN5boost9function0IvEC2Ev
FN:716,_ZN5boost9function1IvNS_8contract4fromEEC2IZN1FC4EvEUlS2_E_EET_NS_11enable_if_cIXntsrNS_11is_integralIS7_EE5valueEiE4typeE
FN:716,_ZN5boost9function0IvEC2ISt5_BindIFPFvRKiS5_EiiEEEET_NS_11enable_if_cIXntsrNS_11is_integralISA_EE5valueEiE4typeE
FN:716,_ZN5boost9function1IvNS_8contract4fromEEC2IPFvS2_EEET_NS_11enable_if_cIXntsrNS_11is_integralIS7_EE5valueEiE4typeE
FN:716,_ZN5boost9function0IvEC2IPFvvEEET_NS_11enable_if_cIXntsrNS_11is_integralIS5_EE5valueEiE4typeE
FN:716,_ZN5boost9function0IvEC2IZN1FC4EvEUlvE1_EET_NS_11enable_if_cIXntsrNS_11is_integralIS5_EE5valueEiE4typeE
FN:716,_ZN5boost9function1IvNS_8contract4fromEEC2IZN1FC4EvEUlS2_E0_EET_NS_11enable_if_cIXntsrNS_11is_integralIS7_EE5valueEiE4typeE
FN:749,_ZN5boost9function0IvEC2ERKS1_
FN:749,_ZN5boost9function1IvNS_8contract4fromEEC2ERKS3_
FN:761,_ZN5boost9function1IvNS_8contract4fromEED2Ev
FN:761,_ZN5boost9function0IvED2Ev
FN:861,_ZN5boost9function0IvE4swapERS1_
FN:861,_ZN5boost9function1IvNS_8contract4fromEE4swapERS3_
FN:873,_ZN5boost9function1IvNS_8contract4fromEE5clearEv
FN:873,_ZN5boost9function0IvE5clearEv
FN:902,_ZN5boost9function1IvNS_8contract4fromEE13assign_to_ownERKS3_
FN:902,_ZN5boost9function0IvE13assign_to_ownERKS1_
FN:917,_ZN5boost9function1IvNS_8contract4fromEE9assign_toIZN1FC4EvEUlS2_E0_EEvT_
FN:917,_ZN5boost9function0IvE9assign_toIZN1FC4EvEUlvE1_EEvT_
FN:917,_ZN5boost9function0IvE9assign_toIPFvvEEEvT_
FN:917,_ZN5boost9function0IvE9assign_toISt5_BindIFPFvRKiS5_EiiEEEEvT_
FN:917,_ZN5boost9function1IvNS_8contract4fromEE9assign_toIPFvS2_EEEvT_
FN:917,_ZN5boost9function1IvNS_8contract4fromEE9assign_toIZN1FC4EvEUlS2_E_EEvT_
FN:988,_ZN5boost9function0IvE11move_assignERS1_
FN:988,_ZN5boost9function1IvNS_8contract4fromEE11move_assignERS3_
FN:1054,_ZN5boost8functionIFvNS_8contract4fromEEED2Ev
FN:1054,_ZN5boost8functionIFvvEED2Ev
FN:1067,_ZN5boost8functionIFvvEEC2ISt5_BindIFPFvRKiS6_EiiEEEET_NS_11enable_if_cIXntsrNS_11is_integralISB_EE5valueEiE4typeE
FN:1067,_ZN5boost8functionIFvvEEC2IZN1FC4EvEUlvE1_EET_NS_11enable_if_cIXntsrNS_11is_integralIS6_EE5valueEiE4typeE
FN:1067,_ZN5boost8functionIFvvEEC2IPS1_EET_NS_11enable_if_cIXntsrNS_11is_integralIS5_EE5valueEiE4typeE
FN:1067,_ZN5boost8functionIFvNS_8contract4fromEEEC2IZN1FC4EvEUlS2_E0_EET_NS_11enable_if_cIXntsrNS_11is_integralIS8_EE5valueEiE4typeE
FN:1067,_ZN5boost8functionIFvNS_8contract4fromEEEC2IPS3_EET_NS_11enable_if_cIXntsrNS_11is_integralIS7_EE5valueEiE4typeE
FN:1067,_ZN5boost8functionIFvNS_8contract4fromEEEC2IZN1FC4EvEUlS2_E_EET_NS_11enable_if_cIXntsrNS_11is_integralIS8_EE5valueEiE4typeE
FN:1093,_ZN5boost8functionIFvvEEC2ERKS2_
FN:1093,_ZN5boost8functionIFvNS_8contract4fromEEEC2ERKS4_
FN:1103,_ZN5boost8functionIFvNS_8contract4fromEEEaSERKS4_
FN:1103,_ZN5boost8functionIFvvEEaSERKS2_
FNDA:0,_ZN5boost6detail8function22void_function_invoker1IPFvNS_8contract4fromEEvS4_E6invokeERNS1_15function_bufferES4_
FNDA:3,_ZN5boost6detail8function22void_function_invoker0IPFvvEvE6invokeERNS1_15function_bufferE
FNDA:27,_ZN5boost6detail8function26void_function_obj_invoker0ISt5_BindIFPFvRKiS5_EiiEEvE6invokeERNS1_15function_bufferE
FNDA:0,_ZN5boost6detail8function26void_function_obj_invoker0IZN1FC4EvEUlvE1_vE6invokeERNS1_15function_bufferE
FNDA:0,_ZN5boost6detail8function26void_function_obj_invoker1IZN1FC4EvEUlNS_8contract4fromEE0_vS5_E6invokeERNS1_15function_bufferES5_
FNDA:3,_ZN5boost6detail8function26void_function_obj_invoker1IZN1FC4EvEUlNS_8contract4fromEE_vS5_E6invokeERNS1_15function_bufferES5_
FNDA:27,_ZNK5boost6detail8function13basic_vtable0IvE9assign_toISt5_BindIFPFvRKiS7_EiiEEEEbT_RNS1_15function_bufferE
FNDA:6,_ZNK5boost6detail8function13basic_vtable1IvNS_8contract4fromEE9assign_toIPFvS4_EEEbT_RNS1_15function_bufferE
FNDA:4,_ZNK5boost6detail8function13basic_vtable0IvE9assign_toIPFvvEEEbT_RNS1_15function_bufferE
FNDA:1,_ZNK5boost6detail8function13basic_vtable0IvE9assign_toIZN1FC4EvEUlvE1_EEbT_RNS1_15function_bufferE
FNDA:1,_ZNK5boost6detail8function13basic_vtable1IvNS_8contract4fromEE9assign_toIZN1FC4EvEUlS4_E0_EEbT_RNS1_15function_bufferE
FNDA:1,_ZNK5boost6detail8function13basic_vtable1IvNS_8contract4fromEE9assign_toIZN1FC4EvEUlS4_E_EEbT_RNS1_15function_bufferE
FNDA:6,_ZNK5boost6detail8function13basic_vtable1IvNS_8contract4fromEE5clearERNS1_15function_bufferE
FNDA:4,_ZNK5boost6detail8function13basic_vtable0IvE5clearERNS1_15function_bufferE
FNDA:6,_ZNK5boost6detail8function13basic_vtable1IvNS_8contract4fromEE9assign_toIPFvS4_EEEbT_RNS1_15function_bufferENS1_16function_ptr_tagE
FNDA:4,_ZNK5boost6detail8function13basic_vtable0IvE9assign_toIPFvvEEEbT_RNS1_15function_bufferENS1_16function_ptr_tagE
FNDA:27,_ZNK5boost6detail8function13basic_vtable0IvE14assign_functorISt5_BindIFPFvRKiS7_EiiEEEEvT_RNS1_15function_bufferEN4mpl_5bool_ILb1EEE
FNDA:1,_ZNK5boost6detail8function13basic_vtable0IvE14assign_functorIZN1FC4EvEUlvE1_EEvT_RNS1_15function_bufferEN4mpl_5bool_ILb1EEE
FNDA:1,_ZNK5boost6detail8function13basic_vtable1IvNS_8contract4fromEE14assign_functorIZN1FC4EvEUlS4_E0_EEvT_RNS1_15function_bufferEN4mpl_5bool_ILb1EEE
FNDA:1,_ZNK5boost6detail8function13basic_vtable1IvNS_8contract4fromEE14assign_functorIZN1FC4EvEUlS4_E_EEvT_RNS1_15function_bufferEN4mpl_5bool_ILb1EEE
FNDA:27,_ZNK5boost6detail8function13basic_vtable0IvE9assign_toISt5_BindIFPFvRKiS7_EiiEEEEbT_RNS1_15function_bufferENS1_16function_obj_tagE
FNDA:1,_ZNK5boost6detail8function13basic_vtable0IvE9assign_toIZN1FC4EvEUlvE1_EEbT_RNS1_15function_bufferENS1_16function_obj_tagE
FNDA:1,_ZNK5boost6detail8function13basic_vtable1IvNS_8contract4fromEE9assign_toIZN1FC4EvEUlS4_E0_EEbT_RNS1_15function_bufferENS1_16function_obj_tagE
FNDA:1,_ZNK5boost6detail8function13basic_vtable1IvNS_8contract4fromEE9assign_toIZN1FC4EvEUlS4_E_EEbT_RNS1_15function_bufferENS1_16function_obj_tagE
FNDA:3,_ZNK5boost9function1IvNS_8contract4fromEE10get_vtableEv
FNDA:112,_ZNK5boost9function0IvE10get_vtableEv
FNDA:6,_ZN5boost9function1IvNS_8contract4fromEEC2Ev
FNDA:561,_ZN5boost9function0IvEC2Ev
FNDA:27,_ZN5boost9function0IvEC2ISt5_BindIFPFvRKiS5_EiiEEEET_NS_11enable_if_cIXntsrNS_11is_integralISA_EE5valueEiE4typeE
FNDA:6,_ZN5boost9function1IvNS_8contract4fromEEC2IPFvS2_EEET_NS_11enable_if_cIXntsrNS_11is_integralIS7_EE5valueEiE4typeE
FNDA:4,_ZN5boost9function0IvEC2IPFvvEEET_NS_11enable_if_cIXntsrNS_11is_integralIS5_EE5valueEiE4typeE
FNDA:1,_ZN5boost9function0IvEC2IZN1FC4EvEUlvE1_EET_NS_11enable_if_cIXntsrNS_11is_integralIS5_EE5valueEiE4typeE
FNDA:1,_ZN5boost9function1IvNS_8contract4fromEEC2IZN1FC4EvEUlS2_E0_EET_NS_11enable_if_cIXntsrNS_11is_integralIS7_EE5valueEiE4typeE
FNDA:1,_ZN5boost9function1IvNS_8contract4fromEEC2IZN1FC4EvEUlS2_E_EET_NS_11enable_if_cIXntsrNS_11is_integralIS7_EE5valueEiE4typeE
FNDA:6,_ZN5boost9function1IvNS_8contract4fromEEC2ERKS3_
FNDA:1,_ZN5boost9function0IvEC2ERKS1_
FNDA:20,_ZN5boost9function1IvNS_8contract4fromEED2Ev
FNDA:706,_ZN5boost9function0IvED2Ev
FNDA:6,_ZN5boost9function1IvNS_8contract4fromEE4swapERS3_
FNDA:113,_ZN5boost9function0IvE4swapERS1_
FNDA:20,_ZN5boost9function1IvNS_8contract4fromEE5clearEv
FNDA:818,_ZN5boost9function0IvE5clearEv
FNDA:6,_ZN5boost9function1IvNS_8contract4fromEE13assign_to_ownERKS3_
FNDA:1,_ZN5boost9function0IvE13assign_to_ownERKS1_
FNDA:27,_ZN5boost9function0IvE9assign_toISt5_BindIFPFvRKiS5_EiiEEEEvT_
FNDA:6,_ZN5boost9function1IvNS_8contract4fromEE9assign_toIPFvS2_EEEvT_
FNDA:4,_ZN5boost9function0IvE9assign_toIPFvvEEEvT_
FNDA:1,_ZN5boost9function0IvE9assign_toIZN1FC4EvEUlvE1_EEvT_
FNDA:1,_ZN5boost9function1IvNS_8contract4fromEE9assign_toIZN1FC4EvEUlS2_E0_EEvT_
FNDA:1,_ZN5boost9function1IvNS_8contract4fromEE9assign_toIZN1FC4EvEUlS2_E_EEvT_
FNDA:18,_ZN5boost9function1IvNS_8contract4fromEE11move_assignERS3_
FNDA:339,_ZN5boost9function0IvE11move_assignERS1_
FNDA:14,_ZN5boost8functionIFvNS_8contract4fromEEED2Ev
FNDA:593,_ZN5boost8functionIFvvEED2Ev
FNDA:27,_ZN5boost8functionIFvvEEC2ISt5_BindIFPFvRKiS6_EiiEEEET_NS_11enable_if_cIXntsrNS_11is_integralISB_EE5valueEiE4typeE
FNDA:6,_ZN5boost8functionIFvNS_8contract4fromEEEC2IPS3_EET_NS_11enable_if_cIXntsrNS_11is_integralIS7_EE5valueEiE4typeE
FNDA:4,_ZN5boost8functionIFvvEEC2IPS1_EET_NS_11enable_if_cIXntsrNS_11is_integralIS5_EE5valueEiE4typeE
FNDA:1,_ZN5boost8functionIFvvEEC2IZN1FC4EvEUlvE1_EET_NS_11enable_if_cIXntsrNS_11is_integralIS6_EE5valueEiE4typeE
FNDA:1,_ZN5boost8functionIFvNS_8contract4fromEEEC2IZN1FC4EvEUlS2_E0_EET_NS_11enable_if_cIXntsrNS_11is_integralIS8_EE5valueEiE4typeE
FNDA:1,_ZN5boost8functionIFvNS_8contract4fromEEEC2IZN1FC4EvEUlS2_E_EET_NS_11enable_if_cIXntsrNS_11is_integralIS8_EE5valueEiE4typeE
FNDA:6,_ZN5boost8functionIFvNS_8contract4fromEEEC2ERKS4_
FNDA:1,_ZN5boost8functionIFvvEEC2ERKS2_
FNDA:6,_ZN5boost8functionIFvNS_8contract4fromEEEaSERKS4_
FNDA:1,_ZN5boost8functionIFvvEEaSERKS2_
FNF:64
FNH:61
DA:113,3
DA:117,3
DA:118,3
DA:119,3
DA:150,30
DA:156,30
DA:159,30
DA:160,27
DA:495,40
DA:498,40
DA:507,10
DA:509,10
DA:510,10
DA:511,10
DA:517,10
DA:519,10
DA:520,10
DA:523,10
DA:524,10
DA:526,0
DA:570,30
DA:572,30
DA:573,30
DA:614,30
DA:616,30
DA:617,30
DA:619,30
DA:621,0
DA:682,115
DA:684,115
DA:711,567
DA:716,40
DA:723,40
DA:725,40
DA:726,40
DA:749,7
DA:751,7
DA:752,7
DA:761,726
DA:861,119
DA:863,119
DA:864,0
DA:866,238
DA:867,119
DA:868,119
DA:869,119
DA:873,838
DA:875,838
DA:876,159
DA:877,0
DA:878,159
DA:880,838
DA:902,7
DA:904,7
DA:905,7
DA:906,7
DA:909,7
DA:911,0
DA:914,7
DA:917,40
DA:938,40
DA:939,40
DA:944,40
DA:945,40
DA:947,0
DA:948,40
DA:988,357
DA:990,357
DA:991,0
DA:994,357
DA:995,245
DA:996,245
DA:999,245
DA:1001,0
DA:1003,245
DA:1005,112
DA:1007,0
DA:1008,0
DA:1009,0
DA:1054,607
DA:1067,40
DA:1074,40
DA:1076,40
DA:1093,7
DA:1103,7
DA:1105,7
DA:1106,7
LF:87
LH:76
end_of_record
SF:/usr/local/include/boost/move/utility_core.hpp
DA:249,3
LF:1
LH:1
end_of_record
SF:/usr/local/include/boost/none.hpp
DA:52,1
LF:1
LH:1
end_of_record
SF:/usr/local/include/boost/none_t.hpp
FN:32,_ZN5boost6none_tC2ENS0_8init_tagE
FNDA:2,_ZN5boost6none_tC2ENS0_8init_tagE
FNF:1
FNH:1
DA:32,2
LF:1
LH:1
end_of_record
SF:/usr/local/include/boost/optional/optional.hpp
FN:89,_ZN5boost11optional_ns15in_place_init_tC2ENS1_8init_tagE
FN:97,_ZN5boost11optional_ns18in_place_init_if_tC2ENS1_8init_tagE
FNDA:2,_ZN5boost11optional_ns15in_place_init_tC2ENS1_8init_tagE
FNDA:2,_ZN5boost11optional_ns18in_place_init_if_tC2ENS1_8init_tagE
FNF:2
FNH:2
DA:89,2
DA:91,1
DA:97,2
DA:99,1
LF:4
LH:4
end_of_record
SF:/usr/local/include/boost/smart_ptr/detail/operator_bool.hpp
FN:12,_ZNK5boost10shared_ptrINS_16exception_detail15error_info_baseEEcvbEv
FNDA:0,_ZNK5boost10shared_ptrINS_16exception_detail15error_info_baseEEcvbEv
FNF:1
FNH:0
DA:12,0
DA:14,0
LF:2
LH:0
end_of_record
SF:/usr/local/include/boost/smart_ptr/detail/shared_count.hpp
FN:121,_ZN5boost6detail12shared_countC2Ev
FN:135,_ZN5boost6detail12shared_countC2INS_9unit_test4data9ds_detail13test_case_genIN34number_theory_with_contracts_suite25parametrized_mcm_testcaseENS4_11monomorphic4gridINS9_5arrayIiEESC_EEEEEEPT_
FN:135,_ZN5boost6detail12shared_countC2INS_9unit_test4data9ds_detail13test_case_genIN34number_theory_with_contracts_suite25parametrized_div_testcaseENS4_11monomorphic4gridINS9_5arrayIiEESC_EEEEEEPT_
FN:135,_ZN5boost6detail12shared_countC2INS_9unit_test4data9ds_detail13test_case_genIN34number_theory_with_contracts_suite25parametrized_mcd_testcaseENS4_11monomorphic4gridINS9_5arrayIiEESC_EEEEEEPT_
FN:135,_ZN5boost6detail12shared_countC2INS_16exception_detail15error_info_baseEEEPT_
FN:135,_ZN5boost6detail12shared_countC2INS_9unit_test4data9ds_detail13test_case_genIN34number_theory_with_contracts_suite26parametrized_sign_testcaseENS4_11monomorphic3zipINS9_5arrayIiEESC_EEEEEEPT_
FN:424,_ZN5boost6detail12shared_countD2Ev
FN:432,_ZN5boost6detail12shared_countC2ERKS1_
FN:469,_ZN5boost6detail12shared_count4swapERS1_
FNDA:34,_ZN5boost6detail12shared_countC2Ev
FNDA:1,_ZN5boost6detail12shared_countC2INS_9unit_test4data9ds_detail13test_case_genIN34number_theory_with_contracts_suite25parametrized_mcm_testcaseENS4_11monomorphic4gridINS9_5arrayIiEESC_EEEEEEPT_
FNDA:1,_ZN5boost6detail12shared_countC2INS_9unit_test4data9ds_detail13test_case_genIN34number_theory_with_contracts_suite25parametrized_mcd_testcaseENS4_11monomorphic4gridINS9_5arrayIiEESC_EEEEEEPT_
FNDA:1,_ZN5boost6detail12shared_countC2INS_9unit_test4data9ds_detail13test_case_genIN34number_theory_with_contracts_suite25parametrized_div_testcaseENS4_11monomorphic4gridINS9_5arrayIiEESC_EEEEEEPT_
FNDA:1,_ZN5boost6detail12shared_countC2INS_9unit_test4data9ds_detail13test_case_genIN34number_theory_with_contracts_suite26parametrized_sign_testcaseENS4_11monomorphic3zipINS9_5arrayIiEESC_EEEEEEPT_
FNDA:0,_ZN5boost6detail12shared_countC2INS_16exception_detail15error_info_baseEEEPT_
FNDA:38,_ZN5boost6detail12shared_countD2Ev
FNDA:0,_ZN5boost6detail12shared_countC2ERKS1_
FNDA:4,_ZN5boost6detail12shared_count4swapERS1_
FNF:9
FNH:7
DA:121,34
DA:126,34
DA:135,4
DA:144,4
DA:146,0
DA:148,0
DA:149,0
DA:163,4
DA:424,38
DA:425,38
DA:426,38
DA:430,38
DA:432,0
DA:437,0
DA:438,0
DA:469,4
DA:471,4
DA:472,4
DA:473,4
DA:474,4
LF:20
LH:14
end_of_record
SF:/usr/local/include/boost/smart_ptr/detail/sp_counted_base_std_atomic.hpp
FN:28,_ZN5boost6detail16atomic_incrementEPSt6atomicIiE
FN:33,_ZN5boost6detail16atomic_decrementEPSt6atomicIiE
FN:72,_ZN5boost6detail15sp_counted_baseC2Ev
FN:76,_ZN5boost6detail15sp_counted_baseD0Ev
FN:76,_ZN5boost6detail15sp_counted_baseD2Ev
FN:87,_ZN5boost6detail15sp_counted_base7destroyEv
FN:96,_ZN5boost6detail15sp_counted_base12add_ref_copyEv
FN:106,_ZN5boost6detail15sp_counted_base7releaseEv
FN:120,_ZN5boost6detail15sp_counted_base12weak_releaseEv
FNDA:0,_ZN5boost6detail16atomic_incrementEPSt6atomicIiE
FNDA:624,_ZN5boost6detail16atomic_decrementEPSt6atomicIiE
FNDA:4,_ZN5boost6detail15sp_counted_baseC2Ev
FNDA:0,_ZN5boost6detail15sp_counted_baseD0Ev
FNDA:4,_ZN5boost6detail15sp_counted_baseD2Ev
FNDA:1,_ZN5boost6detail15sp_counted_base7destroyEv
FNDA:0,_ZN5boost6detail15sp_counted_base12add_ref_copyEv
FNDA:623,_ZN5boost6detail15sp_counted_base7releaseEv
FNDA:1,_ZN5boost6detail15sp_counted_base12weak_releaseEv
FNF:9
FNH:6
DA:28,0
DA:30,0
DA:31,0
DA:33,624
DA:35,1248
DA:72,4
DA:74,4
DA:76,4
DA:77,4
DA:78,4
DA:87,1
DA:89,1
DA:90,1
DA:96,0
DA:98,0
DA:99,0
DA:106,623
DA:108,623
DA:110,1
DA:111,1
DA:113,623
DA:120,1
DA:122,1
DA:124,1
DA:126,1
LF:25
LH:19
end_of_record
SF:/usr/local/include/boost/smart_ptr/detail/sp_counted_impl.hpp
FN:67,_ZN5boost6detail17sp_counted_impl_pINS_9unit_test4data9ds_detail13test_case_genIN34number_theory_with_contracts_suite25parametrized_mcm_testcaseENS3_11monomorphic4gridINS8_5arrayIiEESB_EEEEED0Ev
FN:67,_ZN5boost6detail17sp_counted_impl_pINS_16exception_detail15error_info_baseEED0Ev
FN:67,_ZN5boost6detail17sp_counted_impl_pINS_9unit_test4data9ds_detail13test_case_genIN34number_theory_with_contracts_suite25parametrized_mcd_testcaseENS3_11monomorphic4gridINS8_5arrayIiEESB_EEEEED0Ev
FN:67,_ZN5boost6detail17sp_counted_impl_pINS_9unit_test4data9ds_detail13test_case_genIN34number_theory_with_contracts_suite26parametrized_sign_testcaseENS3_11monomorphic3zipINS8_5arrayIiEESB_EEEEED0Ev
FN:67,_ZN5boost6detail17sp_counted_impl_pINS_9unit_test4data9ds_detail13test_case_genIN34number_theory_with_contracts_suite26parametrized_sign_testcaseENS3_11monomorphic3zipINS8_5arrayIiEESB_EEEEED2Ev
FN:67,_ZN5boost6detail17sp_counted_impl_pINS_9unit_test4data9ds_detail13test_case_genIN34number_theory_with_contracts_suite25parametrized_div_testcaseENS3_11monomorphic4gridINS8_5arrayIiEESB_EEEEED2Ev
FN:67,_ZN5boost6detail17sp_counted_impl_pINS_9unit_test4data9ds_detail13test_case_genIN34number_theory_with_contracts_suite25parametrized_div_testcaseENS3_11monomorphic4gridINS8_5arrayIiEESB_EEEEED0Ev
FN:67,_ZN5boost6detail17sp_counted_impl_pINS_9unit_test4data9ds_detail13test_case_genIN34number_theory_with_contracts_suite25parametrized_mcm_testcaseENS3_11monomorphic4gridINS8_5arrayIiEESB_EEEEED2Ev
FN:67,_ZN5boost6detail17sp_counted_impl_pINS_9unit_test4data9ds_detail13test_case_genIN34number_theory_with_contracts_suite25parametrized_mcd_testcaseENS3_11monomorphic4gridINS8_5arrayIiEESB_EEEEED2Ev
FN:67,_ZN5boost6detail17sp_counted_impl_pINS_16exception_detail15error_info_baseEED2Ev
FN:80,_ZN5boost6detail17sp_counted_impl_pINS_16exception_detail15error_info_baseEEC2EPS3_
FN:80,_ZN5boost6detail17sp_counted_impl_pINS_9unit_test4data9ds_detail13test_case_genIN34number_theory_with_contracts_suite25parametrized_mcd_testcaseENS3_11monomorphic4gridINS8_5arrayIiEESB_EEEEEC2EPSD_
FN:80,_ZN5boost6detail17sp_counted_impl_pINS_9unit_test4data9ds_detail13test_case_genIN34number_theory_with_contracts_suite25parametrized_div_testcaseENS3_11monomorphic4gridINS8_5arrayIiEESB_EEEEEC2EPSD_
FN:80,_ZN5boost6detail17sp_counted_impl_pINS_9unit_test4data9ds_detail13test_case_genIN34number_theory_with_contracts_suite25parametrized_mcm_testcaseENS3_11monomorphic4gridINS8_5arrayIiEESB_EEEEEC2EPSD_
FN:80,_ZN5boost6detail17sp_counted_impl_pINS_9unit_test4data9ds_detail13test_case_genIN34number_theory_with_contracts_suite26parametrized_sign_testcaseENS3_11monomorphic3zipINS8_5arrayIiEESB_EEEEEC2EPSD_
FN:87,_ZN5boost6detail17sp_counted_impl_pINS_9unit_test4data9ds_detail13test_case_genIN34number_theory_with_contracts_suite25parametrized_mcm_testcaseENS3_11monomorphic4gridINS8_5arrayIiEESB_EEEEE7disposeEv
FN:87,_ZN5boost6detail17sp_counted_impl_pINS_9unit_test4data9ds_detail13test_case_genIN34number_theory_with_contracts_suite26parametrized_sign_testcaseENS3_11monomorphic3zipINS8_5arrayIiEESB_EEEEE7disposeEv
FN:87,_ZN5boost6detail17sp_counted_impl_pINS_9unit_test4data9ds_detail13test_case_genIN34number_theory_with_contracts_suite25parametrized_div_testcaseENS3_11monomorphic4gridINS8_5arrayIiEESB_EEEEE7disposeEv
FN:87,_ZN5boost6detail17sp_counted_impl_pINS_16exception_detail15error_info_baseEE7disposeEv
FN:87,_ZN5boost6detail17sp_counted_impl_pINS_9unit_test4data9ds_detail13test_case_genIN34number_theory_with_contracts_suite25parametrized_mcd_testcaseENS3_11monomorphic4gridINS8_5arrayIiEESB_EEEEE7disposeEv
FN:95,_ZN5boost6detail17sp_counted_impl_pINS_9unit_test4data9ds_detail13test_case_genIN34number_theory_with_contracts_suite25parametrized_mcm_testcaseENS3_11monomorphic4gridINS8_5arrayIiEESB_EEEEE11get_deleterERKSt9type_info
FN:95,_ZN5boost6detail17sp_counted_impl_pINS_9unit_test4data9ds_detail13test_case_genIN34number_theory_with_contracts_suite25parametrized_mcd_testcaseENS3_11monomorphic4gridINS8_5arrayIiEESB_EEEEE11get_deleterERKSt9type_info
FN:95,_ZN5boost6detail17sp_counted_impl_pINS_16exception_detail15error_info_baseEE11get_deleterERKSt9type_info
FN:95,_ZN5boost6detail17sp_counted_impl_pINS_9unit_test4data9ds_detail13test_case_genIN34number_theory_with_contracts_suite25parametrized_div_testcaseENS3_11monomorphic4gridINS8_5arrayIiEESB_EEEEE11get_deleterERKSt9type_info
FN:95,_ZN5boost6detail17sp_counted_impl_pINS_9unit_test4data9ds_detail13test_case_genIN34number_theory_with_contracts_suite26parametrized_sign_testcaseENS3_11monomorphic3zipINS8_5arrayIiEESB_EEEEE11get_deleterERKSt9type_info
FN:100,_ZN5boost6detail17sp_counted_impl_pINS_16exception_detail15error_info_baseEE17get_local_deleterERKSt9type_info
FN:100,_ZN5boost6detail17sp_counted_impl_pINS_9unit_test4data9ds_detail13test_case_genIN34number_theory_with_contracts_suite25parametrized_div_testcaseENS3_11monomorphic4gridINS8_5arrayIiEESB_EEEEE17get_local_deleterERKSt9type_info
FN:100,_ZN5boost6detail17sp_counted_impl_pINS_9unit_test4data9ds_detail13test_case_genIN34number_theory_with_contracts_suite25parametrized_mcd_testcaseENS3_11monomorphic4gridINS8_5arrayIiEESB_EEEEE17get_local_deleterERKSt9type_info
FN:100,_ZN5boost6detail17sp_counted_impl_pINS_9unit_test4data9ds_detail13test_case_genIN34number_theory_with_contracts_suite26parametrized_sign_testcaseENS3_11monomorphic3zipINS8_5arrayIiEESB_EEEEE17get_local_deleterERKSt9type_info
FN:100,_ZN5boost6detail17sp_counted_impl_pINS_9unit_test4data9ds_detail13test_case_genIN34number_theory_with_contracts_suite25parametrized_mcm_testcaseENS3_11monomorphic4gridINS8_5arrayIiEESB_EEEEE17get_local_deleterERKSt9type_info
FN:105,_ZN5boost6detail17sp_counted_impl_pINS_16exception_detail15error_info_baseEE19get_untyped_deleterEv
FN:105,_ZN5boost6detail17sp_counted_impl_pINS_9unit_test4data9ds_detail13test_case_genIN34number_theory_with_contracts_suite25parametrized_div_testcaseENS3_11monomorphic4gridINS8_5arrayIiEESB_EEEEE19get_untyped_deleterEv
FN:105,_ZN5boost6detail17sp_counted_impl_pINS_9unit_test4data9ds_detail13test_case_genIN34number_theory_with_contracts_suite25parametrized_mcm_testcaseENS3_11monomorphic4gridINS8_5arrayIiEESB_EEEEE19get_untyped_deleterEv
FN:105,_ZN5boost6detail17sp_counted_impl_pINS_9unit_test4data9ds_detail13test_case_genIN34number_theory_with_contracts_suite26parametrized_sign_testcaseENS3_11monomorphic3zipINS8_5arrayIiEESB_EEEEE19get_untyped_deleterEv
FN:105,_ZN5boost6detail17sp_counted_impl_pINS_9unit_test4data9ds_detail13test_case_genIN34number_theory_with_contracts_suite25parametrized_mcd_testcaseENS3_11monomorphic4gridINS8_5arrayIiEESB_EEEEE19get_untyped_deleterEv
FNDA:0,_ZN5boost6detail17sp_counted_impl_pINS_16exception_detail15error_info_baseEED0Ev
FNDA:0,_ZN5boost6detail17sp_counted_impl_pINS_16exception_detail15error_info_baseEED2Ev
FNDA:1,_ZN5boost6detail17sp_counted_impl_pINS_9unit_test4data9ds_detail13test_case_genIN34number_theory_with_contracts_suite26parametrized_sign_testcaseENS3_11monomorphic3zipINS8_5arrayIiEESB_EEEEED0Ev
FNDA:1,_ZN5boost6detail17sp_counted_impl_pINS_9unit_test4data9ds_detail13test_case_genIN34number_theory_with_contracts_suite26parametrized_sign_testcaseENS3_11monomorphic3zipINS8_5arrayIiEESB_EEEEED2Ev
FNDA:1,_ZN5boost6detail17sp_counted_impl_pINS_9unit_test4data9ds_detail13test_case_genIN34number_theory_with_contracts_suite25parametrized_div_testcaseENS3_11monomorphic4gridINS8_5arrayIiEESB_EEEEED0Ev
FNDA:1,_ZN5boost6detail17sp_counted_impl_pINS_9unit_test4data9ds_detail13test_case_genIN34number_theory_with_contracts_suite25parametrized_div_testcaseENS3_11monomorphic4gridINS8_5arrayIiEESB_EEEEED2Ev
FNDA:1,_ZN5boost6detail17sp_counted_impl_pINS_9unit_test4data9ds_detail13test_case_genIN34number_theory_with_contracts_suite25parametrized_mcd_testcaseENS3_11monomorphic4gridINS8_5arrayIiEESB_EEEEED0Ev
FNDA:1,_ZN5boost6detail17sp_counted_impl_pINS_9unit_test4data9ds_detail13test_case_genIN34number_theory_with_contracts_suite25parametrized_mcd_testcaseENS3_11monomorphic4gridINS8_5arrayIiEESB_EEEEED2Ev
FNDA:1,_ZN5boost6detail17sp_counted_impl_pINS_9unit_test4data9ds_detail13test_case_genIN34number_theory_with_contracts_suite25parametrized_mcm_testcaseENS3_11monomorphic4gridINS8_5arrayIiEESB_EEEEED0Ev
FNDA:1,_ZN5boost6detail17sp_counted_impl_pINS_9unit_test4data9ds_detail13test_case_genIN34number_theory_with_contracts_suite25parametrized_mcm_testcaseENS3_11monomorphic4gridINS8_5arrayIiEESB_EEEEED2Ev
FNDA:1,_ZN5boost6detail17sp_counted_impl_pINS_9unit_test4data9ds_detail13test_case_genIN34number_theory_with_contracts_suite25parametrized_mcm_testcaseENS3_11monomorphic4gridINS8_5arrayIiEESB_EEEEEC2EPSD_
FNDA:1,_ZN5boost6detail17sp_counted_impl_pINS_9unit_test4data9ds_detail13test_case_genIN34number_theory_with_contracts_suite25parametrized_mcd_testcaseENS3_11monomorphic4gridINS8_5arrayIiEESB_EEEEEC2EPSD_
FNDA:1,_ZN5boost6detail17sp_counted_impl_pINS_9unit_test4data9ds_detail13test_case_genIN34number_theory_with_contracts_suite25parametrized_div_testcaseENS3_11monomorphic4gridINS8_5arrayIiEESB_EEEEEC2EPSD_
FNDA:1,_ZN5boost6detail17sp_counted_impl_pINS_9unit_test4data9ds_detail13test_case_genIN34number_theory_with_contracts_suite26parametrized_sign_testcaseENS3_11monomorphic3zipINS8_5arrayIiEESB_EEEEEC2EPSD_
FNDA:0,_ZN5boost6detail17sp_counted_impl_pINS_16exception_detail15error_info_baseEEC2EPS3_
FNDA:0,_ZN5boost6detail17sp_counted_impl_pINS_16exception_detail15error_info_baseEE7disposeEv
FNDA:1,_ZN5boost6detail17sp_counted_impl_pINS_9unit_test4data9ds_detail13test_case_genIN34number_theory_with_contracts_suite26parametrized_sign_testcaseENS3_11monomorphic3zipINS8_5arrayIiEESB_EEEEE7disposeEv
FNDA:1,_ZN5boost6detail17sp_counted_impl_pINS_9unit_test4data9ds_detail13test_case_genIN34number_theory_with_contracts_suite25parametrized_div_testcaseENS3_11monomorphic4gridINS8_5arrayIiEESB_EEEEE7disposeEv
FNDA:1,_ZN5boost6detail17sp_counted_impl_pINS_9unit_test4data9ds_detail13test_case_genIN34number_theory_with_contracts_suite25parametrized_mcd_testcaseENS3_11monomorphic4gridINS8_5arrayIiEESB_EEEEE7disposeEv
FNDA:1,_ZN5boost6detail17sp_counted_impl_pINS_9unit_test4data9ds_detail13test_case_genIN34number_theory_with_contracts_suite25parametrized_mcm_testcaseENS3_11monomorphic4gridINS8_5arrayIiEESB_EEEEE7disposeEv
FNDA:0,_ZN5boost6detail17sp_counted_impl_pINS_16exception_detail15error_info_baseEE11get_deleterERKSt9type_info
FNDA:0,_ZN5boost6detail17sp_counted_impl_pINS_9unit_test4data9ds_detail13test_case_genIN34number_theory_with_contracts_suite26parametrized_sign_testcaseENS3_11monomorphic3zipINS8_5arrayIiEESB_EEEEE11get_deleterERKSt9type_info
FNDA:0,_ZN5boost6detail17sp_counted_impl_pINS_9unit_test4data9ds_detail13test_case_genIN34number_theory_with_contracts_suite25parametrized_div_testcaseENS3_11monomorphic4gridINS8_5arrayIiEESB_EEEEE11get_deleterERKSt9type_info
FNDA:0,_ZN5boost6detail17sp_counted_impl_pINS_9unit_test4data9ds_detail13test_case_genIN34number_theory_with_contracts_suite25parametrized_mcd_testcaseENS3_11monomorphic4gridINS8_5arrayIiEESB_EEEEE11get_deleterERKSt9type_info
FNDA:0,_ZN5boost6detail17sp_counted_impl_pINS_9unit_test4data9ds_detail13test_case_genIN34number_theory_with_contracts_suite25parametrized_mcm_testcaseENS3_11monomorphic4gridINS8_5arrayIiEESB_EEEEE11get_deleterERKSt9type_info
FNDA:0,_ZN5boost6detail17sp_counted_impl_pINS_16exception_detail15error_info_baseEE17get_local_deleterERKSt9type_info
FNDA:0,_ZN5boost6detail17sp_counted_impl_pINS_9unit_test4data9ds_detail13test_case_genIN34number_theory_with_contracts_suite26parametrized_sign_testcaseENS3_11monomorphic3zipINS8_5arrayIiEESB_EEEEE17get_local_deleterERKSt9type_info
FNDA:0,_ZN5boost6detail17sp_counted_impl_pINS_9unit_test4data9ds_detail13test_case_genIN34number_theory_with_contracts_suite25parametrized_div_testcaseENS3_11monomorphic4gridINS8_5arrayIiEESB_EEEEE17get_local_deleterERKSt9type_info
FNDA:0,_ZN5boost6detail17sp_counted_impl_pINS_9unit_test4data9ds_detail13test_case_genIN34number_theory_with_contracts_suite25parametrized_mcd_testcaseENS3_11monomorphic4gridINS8_5arrayIiEESB_EEEEE17get_local_deleterERKSt9type_info
FNDA:0,_ZN5boost6detail17sp_counted_impl_pINS_9unit_test4data9ds_detail13test_case_genIN34number_theory_with_contracts_suite25parametrized_mcm_testcaseENS3_11monomorphic4gridINS8_5arrayIiEESB_EEEEE17get_local_deleterERKSt9type_info
FNDA:0,_ZN5boost6detail17sp_counted_impl_pINS_16exception_detail15error_info_baseEE19get_untyped_deleterEv
FNDA:0,_ZN5boost6detail17sp_counted_impl_pINS_9unit_test4data9ds_detail13test_case_genIN34number_theory_with_contracts_suite26parametrized_sign_testcaseENS3_11monomorphic3zipINS8_5arrayIiEESB_EEEEE19get_untyped_deleterEv
FNDA:0,_ZN5boost6detail17sp_counted_impl_pINS_9unit_test4data9ds_detail13test_case_genIN34number_theory_with_contracts_suite25parametrized_div_testcaseENS3_11monomorphic4gridINS8_5arrayIiEESB_EEEEE19get_untyped_deleterEv
FNDA:0,_ZN5boost6detail17sp_counted_impl_pINS_9unit_test4data9ds_detail13test_case_genIN34number_theory_with_contracts_suite25parametrized_mcd_testcaseENS3_11monomorphic4gridINS8_5arrayIiEESB_EEEEE19get_untyped_deleterEv
FNDA:0,_ZN5boost6detail17sp_counted_impl_pINS_9unit_test4data9ds_detail13test_case_genIN34number_theory_with_contracts_suite25parametrized_mcm_testcaseENS3_11monomorphic4gridINS8_5arrayIiEESB_EEEEE19get_untyped_deleterEv
FNF:35
FNH:16
DA:67,8
DA:80,4
DA:85,4
DA:87,4
DA:92,4
DA:93,4
DA:95,0
DA:97,0
DA:100,0
DA:102,0
DA:105,0
DA:107,0
LF:12
LH:6
end_of_record
SF:/usr/local/include/boost/smart_ptr/shared_ptr.hpp
FN:242,_ZN5boost6detail26sp_enable_shared_from_thisEz
FN:283,_ZN5boost6detail20sp_pointer_constructINS_9unit_test19test_unit_generatorENS2_4data9ds_detail13test_case_genIN34number_theory_with_contracts_suite25parametrized_div_testcaseENS4_11monomorphic4gridINS9_5arrayIiEESC_EEEEEEvPNS_10shared_ptrIT_EEPT0_RNS0_12shared_countE
FN:283,_ZN5boost6detail20sp_pointer_constructINS_9unit_test19test_unit_generatorENS2_4data9ds_detail13test_case_genIN34number_theory_with_contracts_suite26parametrized_sign_testcaseENS4_11monomorphic3zipINS9_5arrayIiEESC_EEEEEEvPNS_10shared_ptrIT_EEPT0_RNS0_12shared_countE
FN:283,_ZN5boost6detail20sp_pointer_constructINS_9unit_test19test_unit_generatorENS2_4data9ds_detail13test_case_genIN34number_theory_with_contracts_suite25parametrized_mcd_testcaseENS4_11monomorphic4gridINS9_5arrayIiEESC_EEEEEEvPNS_10shared_ptrIT_EEPT0_RNS0_12shared_countE
FN:283,_ZN5boost6detail20sp_pointer_constructINS_16exception_detail15error_info_baseES3_EEvPNS_10shared_ptrIT_EEPT0_RNS0_12shared_countE
FN:283,_ZN5boost6detail20sp_pointer_constructINS_9unit_test19test_unit_generatorENS2_4data9ds_detail13test_case_genIN34number_theory_with_contracts_suite25parametrized_mcm_testcaseENS4_11monomorphic4gridINS9_5arrayIiEESC_EEEEEEvPNS_10shared_ptrIT_EEPT0_RNS0_12shared_countE
FN:341,_ZN5boost10shared_ptrINS_23basic_wrap_stringstreamIcEEED2Ev
FN:341,_ZN5boost10shared_ptrINS_9unit_test19test_unit_generatorEED2Ev
FN:341,_ZN5boost10shared_ptrINS_16exception_detail15error_info_baseEED2Ev
FN:341,_ZN5boost10shared_ptrINS_9unit_test9decorator4baseEED2Ev
FN:352,_ZN5boost10shared_ptrINS_16exception_detail15error_info_baseEEC2Ev
FN:352,_ZN5boost10shared_ptrINS_23basic_wrap_stringstreamIcEEEC2Ev
FN:377,_ZN5boost10shared_ptrINS_9unit_test19test_unit_generatorEEC2INS1_4data9ds_detail13test_case_genIN34number_theory_with_contracts_suite26parametrized_sign_testcaseENS5_11monomorphic3zipINSA_5arrayIiEESD_EEEEEEPT_
FN:377,_ZN5boost10shared_ptrINS_16exception_detail15error_info_baseEEC2IS2_EEPT_
FN:377,_ZN5boost10shared_ptrINS_9unit_test19test_unit_generatorEEC2INS1_4data9ds_detail13test_case_genIN34number_theory_with_contracts_suite25parametrized_mcm_testcaseENS5_11monomorphic4gridINSA_5arrayIiEESD_EEEEEEPT_
FN:377,_ZN5boost10shared_ptrINS_9unit_test19test_unit_generatorEEC2INS1_4data9ds_detail13test_case_genIN34number_theory_with_contracts_suite25parametrized_mcd_testcaseENS5_11monomorphic4gridINSA_5arrayIiEESD_EEEEEEPT_
FN:377,_ZN5boost10shared_ptrINS_9unit_test19test_unit_generatorEEC2INS1_4data9ds_detail13test_case_genIN34number_theory_with_contracts_suite25parametrized_div_testcaseENS5_11monomorphic4gridINSA_5arrayIiEESD_EEEEEEPT_
FN:422,_ZN5boost10shared_ptrINS_16exception_detail15error_info_baseEEC2ERKS3_
FN:547,_ZN5boost10shared_ptrINS_16exception_detail15error_info_baseEEaSERKS3_
FN:634,_ZN5boost10shared_ptrINS_16exception_detail15error_info_baseEEC2EOS3_
FN:726,_ZNK5boost10shared_ptrINS_16exception_detail15error_info_baseEEdeEv
FN:732,_ZNK5boost10shared_ptrINS_16exception_detail15error_info_baseEEptEv
FN:764,_ZN5boost10shared_ptrINS_16exception_detail15error_info_baseEE4swapERS3_
FNDA:4,_ZN5boost6detail26sp_enable_shared_from_thisEz
FNDA:1,_ZN5boost6detail20sp_pointer_constructINS_9unit_test19test_unit_generatorENS2_4data9ds_detail13test_case_genIN34number_theory_with_contracts_suite25parametrized_mcm_testcaseENS4_11monomorphic4gridINS9_5arrayIiEESC_EEEEEEvPNS_10shared_ptrIT_EEPT0_RNS0_12shared_countE
FNDA:1,_ZN5boost6detail20sp_pointer_constructINS_9unit_test19test_unit_generatorENS2_4data9ds_detail13test_case_genIN34number_theory_with_contracts_suite25parametrized_mcd_testcaseENS4_11monomorphic4gridINS9_5arrayIiEESC_EEEEEEvPNS_10shared_ptrIT_EEPT0_RNS0_12shared_countE
FNDA:1,_ZN5boost6detail20sp_pointer_constructINS_9unit_test19test_unit_generatorENS2_4data9ds_detail13test_case_genIN34number_theory_with_contracts_suite25parametrized_div_testcaseENS4_11monomorphic4gridINS9_5arrayIiEESC_EEEEEEvPNS_10shared_ptrIT_EEPT0_RNS0_12shared_countE
FNDA:1,_ZN5boost6detail20sp_pointer_constructINS_9unit_test19test_unit_generatorENS2_4data9ds_detail13test_case_genIN34number_theory_with_contracts_suite26parametrized_sign_testcaseENS4_11monomorphic3zipINS9_5arrayIiEESC_EEEEEEvPNS_10shared_ptrIT_EEPT0_RNS0_12shared_countE
FNDA:0,_ZN5boost6detail20sp_pointer_constructINS_16exception_detail15error_info_baseES3_EEvPNS_10shared_ptrIT_EEPT0_RNS0_12shared_countE
FNDA:4,_ZN5boost10shared_ptrINS_9unit_test19test_unit_generatorEED2Ev
FNDA:0,_ZN5boost10shared_ptrINS_16exception_detail15error_info_baseEED2Ev
FNDA:0,_ZN5boost10shared_ptrINS_9unit_test9decorator4baseEED2Ev
FNDA:30,_ZN5boost10shared_ptrINS_23basic_wrap_stringstreamIcEEED2Ev
FNDA:0,_ZN5boost10shared_ptrINS_16exception_detail15error_info_baseEEC2Ev
FNDA:30,_ZN5boost10shared_ptrINS_23basic_wrap_stringstreamIcEEEC2Ev
FNDA:1,_ZN5boost10shared_ptrINS_9unit_test19test_unit_generatorEEC2INS1_4data9ds_detail13test_case_genIN34number_theory_with_contracts_suite25parametrized_mcm_testcaseENS5_11monomorphic4gridINSA_5arrayIiEESD_EEEEEEPT_
FNDA:1,_ZN5boost10shared_ptrINS_9unit_test19test_unit_generatorEEC2INS1_4data9ds_detail13test_case_genIN34number_theory_with_contracts_suite25parametrized_mcd_testcaseENS5_11monomorphic4gridINSA_5arrayIiEESD_EEEEEEPT_
FNDA:1,_ZN5boost10shared_ptrINS_9unit_test19test_unit_generatorEEC2INS1_4data9ds_detail13test_case_genIN34number_theory_with_contracts_suite25parametrized_div_testcaseENS5_11monomorphic4gridINSA_5arrayIiEESD_EEEEEEPT_
FNDA:1,_ZN5boost10shared_ptrINS_9unit_test19test_unit_generatorEEC2INS1_4data9ds_detail13test_case_genIN34number_theory_with_contracts_suite26parametrized_sign_testcaseENS5_11monomorphic3zipINSA_5arrayIiEESD_EEEEEEPT_
FNDA:0,_ZN5boost10shared_ptrINS_16exception_detail15error_info_baseEEC2IS2_EEPT_
FNDA:0,_ZN5boost10shared_ptrINS_16exception_detail15error_info_baseEEC2ERKS3_
FNDA:0,_ZN5boost10shared_ptrINS_16exception_detail15error_info_baseEEaSERKS3_
FNDA:0,_ZN5boost10shared_ptrINS_16exception_detail15error_info_baseEEC2EOS3_
FNDA:0,_ZNK5boost10shared_ptrINS_16exception_detail15error_info_baseEEdeEv
FNDA:0,_ZNK5boost10shared_ptrINS_16exception_detail15error_info_baseEEptEv
FNDA:0,_ZN5boost10shared_ptrINS_16exception_detail15error_info_baseEE4swapERS3_
FNF:23
FNH:12
DA:242,4
DA:244,4
DA:283,4
DA:285,4
DA:286,4
DA:287,4
DA:341,34
DA:352,30
DA:354,30
DA:377,4
DA:379,4
DA:380,4
DA:422,0
DA:424,0
DA:547,0
DA:549,0
DA:550,0
DA:634,0
DA:636,0
DA:637,0
DA:638,0
DA:726,0
DA:728,0
DA:729,0
DA:732,0
DA:734,0
DA:735,0
DA:764,0
DA:766,0
DA:767,0
DA:768,0
LF:31
LH:12
end_of_record
SF:/usr/local/include/boost/system/error_code.hpp
FN:229,_ZN5boost6system14error_category12std_categoryD2Ev
FN:229,_ZN5boost6system14error_category12std_categoryD0Ev
FN:241,_ZNK5boost6system14error_category12std_category4nameEv
FN:246,_ZNK5boost6system14error_category12std_category7messageB5cxx11Ei
FN:265,_ZNK5boost6system14error_categorycvRKNSt3_V214error_categoryEEv
FN:332,_ZN5boost6systemeqERKNS0_14error_categoryES3_
FN:476,_ZN5boost6system16generic_categoryEv
FN:527,_ZN5boost6system15error_conditionC2EiRKNS0_14error_categoryE
FN:562,_ZNK5boost6system15error_condition5valueEv
FN:563,_ZNK5boost6system15error_condition8categoryEv
FN:610,_ZNK5boost6system15error_conditioncvSt15error_conditionEv
FN:637,_ZN5boost6system10error_codeC2EiRKNS0_14error_categoryE
FN:670,_ZNK5boost6system10error_code5valueEv
FN:674,_ZNK5boost6system10error_code7messageB5cxx11Ev
FN:863,_ZNK5boost6system14error_category12std_category23default_error_conditionEi
FN:869,_ZNK5boost6system14error_category12std_category10equivalentEiRKSt15error_condition
FN:899,_ZNK5boost6system14error_category12std_category10equivalentERKSt10error_codei
FNDA:0,_ZN5boost6system14error_category12std_categoryD0Ev
FNDA:0,_ZN5boost6system14error_category12std_categoryD2Ev
FNDA:0,_ZNK5boost6system14error_category12std_category4nameEv
FNDA:0,_ZNK5boost6system14error_category12std_category7messageB5cxx11Ei
FNDA:0,_ZNK5boost6system14error_categorycvRKNSt3_V214error_categoryEEv
FNDA:0,_ZN5boost6systemeqERKNS0_14error_categoryES3_
FNDA:0,_ZN5boost6system16generic_categoryEv
FNDA:0,_ZN5boost6system15error_conditionC2EiRKNS0_14error_categoryE
FNDA:0,_ZNK5boost6system15error_condition5valueEv
FNDA:0,_ZNK5boost6system15error_condition8categoryEv
FNDA:0,_ZNK5boost6system15error_conditioncvSt15error_conditionEv
FNDA:0,_ZN5boost6system10error_codeC2EiRKNS0_14error_categoryE
FNDA:0,_ZNK5boost6system10error_code5valueEv
FNDA:0,_ZNK5boost6system10error_code7messageB5cxx11Ev
FNDA:0,_ZNK5boost6system14error_category12std_category23default_error_conditionEi
FNDA:0,_ZNK5boost6system14error_category12std_category10equivalentEiRKSt15error_condition
FNDA:0,_ZNK5boost6system14error_category12std_category10equivalentERKSt10error_codei
FNF:17
FNH:0
DA:229,0
DA:241,0
DA:243,0
DA:246,0
DA:248,0
DA:265,0
DA:270,0
DA:332,0
DA:334,0
DA:476,0
DA:478,0
DA:527,0
DA:528,0
DA:562,0
DA:563,0
DA:610,0
DA:612,0
DA:637,0
DA:638,0
DA:670,0
DA:674,0
DA:863,0
DA:866,0
DA:869,0
DA:872,0
DA:874,0
DA:875,0
DA:877,0
DA:878,0
DA:881,0
DA:883,0
DA:886,0
DA:887,0
DA:889,0
DA:890,0
DA:895,0
DA:899,0
DA:902,0
DA:904,0
DA:905,0
DA:907,0
DA:908,0
DA:911,0
DA:913,0
DA:916,0
DA:917,0
DA:919,0
DA:920,0
DA:923,0
DA:925,0
DA:929,0
LF:51
LH:0
end_of_record
SF:/usr/local/include/boost/system/system_error.hpp
FN:22,_ZN5boost6system12system_errorC2ERKS1_
FN:33,_ZN5boost6system12system_errorC2ENS0_10error_codeEPKc
FN:47,_ZN5boost6system12system_errorD2Ev
FN:47,_ZN5boost6system12system_errorD0Ev
FN:59,_ZNK5boost6system12system_error4whatEv
FNDA:0,_ZN5boost6system12system_errorC2ERKS1_
FNDA:0,_ZN5boost6system12system_errorC2ENS0_10error_codeEPKc
FNDA:0,_ZN5boost6system12system_errorD0Ev
FNDA:0,_ZN5boost6system12system_errorD2Ev
FNDA:0,_ZNK5boost6system12system_error4whatEv
FNF:5
FNH:0
DA:22,0
DA:33,0
DA:34,0
DA:47,0
DA:59,0
DA:62,0
DA:68,0
DA:69,0
DA:70,0
DA:73,0
DA:76,0
LF:11
LH:0
end_of_record
SF:/usr/local/include/boost/test/data/for_each_sample.hpp
FN:51,_ZN5boost9unit_test4data18invoke_action_implINS1_9ds_detail13test_case_genIN34number_theory_with_contracts_suite25parametrized_div_testcaseENS1_11monomorphic4gridINS7_5arrayIiEESA_EEEESt5tupleIJRKiSF_EEJLm0ELm1EEEEvRKT_OT0_RKNS1_14index_sequenceIJXspT1_EEEE
FN:51,_ZN5boost9unit_test4data18invoke_action_implINS1_9ds_detail13test_case_genIN34number_theory_with_contracts_suite26parametrized_sign_testcaseENS1_11monomorphic3zipINS7_5arrayIiEESA_EEEESt5tupleIJRKiSF_EEJLm0ELm1EEEEvRKT_OT0_RKNS1_14index_sequenceIJXspT1_EEEE
FN:51,_ZN5boost9unit_test4data18invoke_action_implINS1_9ds_detail13test_case_genIN34number_theory_with_contracts_suite25parametrized_mcm_testcaseENS1_11monomorphic4gridINS7_5arrayIiEESA_EEEESt5tupleIJRKiSF_EEJLm0ELm1EEEEvRKT_OT0_RKNS1_14index_sequenceIJXspT1_EEEE
FN:51,_ZN5boost9unit_test4data18invoke_action_implINS1_9ds_detail13test_case_genIN34number_theory_with_contracts_suite25parametrized_mcd_testcaseENS1_11monomorphic4gridINS7_5arrayIiEESA_EEEESt5tupleIJRKiSF_EEJLm0ELm1EEEEvRKT_OT0_RKNS1_14index_sequenceIJXspT1_EEEE
FN:62,_ZN5boost9unit_test4data13invoke_actionINS1_9ds_detail13test_case_genIN34number_theory_with_contracts_suite25parametrized_mcm_testcaseENS1_11monomorphic4gridINS7_5arrayIiEESA_EEEESt5tupleIJRKiSF_EEEEvRKT_OT0_St17integral_constantIbLb1EE
FN:62,_ZN5boost9unit_test4data13invoke_actionINS1_9ds_detail13test_case_genIN34number_theory_with_contracts_suite25parametrized_div_testcaseENS1_11monomorphic4gridINS7_5arrayIiEESA_EEEESt5tupleIJRKiSF_EEEEvRKT_OT0_St17integral_constantIbLb1EE
FN:62,_ZN5boost9unit_test4data13invoke_actionINS1_9ds_detail13test_case_genIN34number_theory_with_contracts_suite26parametrized_sign_testcaseENS1_11monomorphic3zipINS7_5arrayIiEESA_EEEESt5tupleIJRKiSF_EEEEvRKT_OT0_St17integral_constantIbLb1EE
FN:62,_ZN5boost9unit_test4data13invoke_actionINS1_9ds_detail13test_case_genIN34number_theory_with_contracts_suite25parametrized_mcd_testcaseENS1_11monomorphic4gridINS7_5arrayIiEESA_EEEESt5tupleIJRKiSF_EEEEvRKT_OT0_St17integral_constantIbLb1EE
FN:80,_ZN5boost9unit_test4data15for_each_sampleINS1_11monomorphic4gridINS3_5arrayIiEES6_EENS1_9ds_detail13test_case_genIN34number_theory_with_contracts_suite25parametrized_mcd_testcaseES7_EEEENSt9enable_ifIXsrNS3_10is_datasetIT_EE5valueEvE4typeERKSF_RKT0_NS1_6size_tE
FN:80,_ZN5boost9unit_test4data15for_each_sampleINS1_11monomorphic4gridINS3_5arrayIiEES6_EENS1_9ds_detail13test_case_genIN34number_theory_with_contracts_suite25parametrized_div_testcaseES7_EEEENSt9enable_ifIXsrNS3_10is_datasetIT_EE5valueEvE4typeERKSF_RKT0_NS1_6size_tE
FN:80,_ZN5boost9unit_test4data15for_each_sampleINS1_11monomorphic4gridINS3_5arrayIiEES6_EENS1_9ds_detail13test_case_genIN34number_theory_with_contracts_suite25parametrized_mcm_testcaseES7_EEEENSt9enable_ifIXsrNS3_10is_datasetIT_EE5valueEvE4typeERKSF_RKT0_NS1_6size_tE
FN:80,_ZN5boost9unit_test4data15for_each_sampleINS1_11monomorphic3zipINS3_5arrayIiEES6_EENS1_9ds_detail13test_case_genIN34number_theory_with_contracts_suite26parametrized_sign_testcaseES7_EEEENSt9enable_ifIXsrNS3_10is_datasetIT_EE5valueEvE4typeERKSF_RKT0_NS1_6size_tE
FNDA:3,_ZN5boost9unit_test4data18invoke_action_implINS1_9ds_detail13test_case_genIN34number_theory_with_contracts_suite26parametrized_sign_testcaseENS1_11monomorphic3zipINS7_5arrayIiEESA_EEEESt5tupleIJRKiSF_EEJLm0ELm1EEEEvRKT_OT0_RKNS1_14index_sequenceIJXspT1_EEEE
FNDA:6,_ZN5boost9unit_test4data18invoke_action_implINS1_9ds_detail13test_case_genIN34number_theory_with_contracts_suite25parametrized_div_testcaseENS1_11monomorphic4gridINS7_5arrayIiEESA_EEEESt5tupleIJRKiSF_EEJLm0ELm1EEEEvRKT_OT0_RKNS1_14index_sequenceIJXspT1_EEEE
FNDA:9,_ZN5boost9unit_test4data18invoke_action_implINS1_9ds_detail13test_case_genIN34number_theory_with_contracts_suite25parametrized_mcd_testcaseENS1_11monomorphic4gridINS7_5arrayIiEESA_EEEESt5tupleIJRKiSF_EEJLm0ELm1EEEEvRKT_OT0_RKNS1_14index_sequenceIJXspT1_EEEE
FNDA:9,_ZN5boost9unit_test4data18invoke_action_implINS1_9ds_detail13test_case_genIN34number_theory_with_contracts_suite25parametrized_mcm_testcaseENS1_11monomorphic4gridINS7_5arrayIiEESA_EEEESt5tupleIJRKiSF_EEJLm0ELm1EEEEvRKT_OT0_RKNS1_14index_sequenceIJXspT1_EEEE
FNDA:3,_ZN5boost9unit_test4data13invoke_actionINS1_9ds_detail13test_case_genIN34number_theory_with_contracts_suite26parametrized_sign_testcaseENS1_11monomorphic3zipINS7_5arrayIiEESA_EEEESt5tupleIJRKiSF_EEEEvRKT_OT0_St17integral_constantIbLb1EE
FNDA:6,_ZN5boost9unit_test4data13invoke_actionINS1_9ds_detail13test_case_genIN34number_theory_with_contracts_suite25parametrized_div_testcaseENS1_11monomorphic4gridINS7_5arrayIiEESA_EEEESt5tupleIJRKiSF_EEEEvRKT_OT0_St17integral_constantIbLb1EE
FNDA:9,_ZN5boost9unit_test4data13invoke_actionINS1_9ds_detail13test_case_genIN34number_theory_with_contracts_suite25parametrized_mcd_testcaseENS1_11monomorphic4gridINS7_5arrayIiEESA_EEEESt5tupleIJRKiSF_EEEEvRKT_OT0_St17integral_constantIbLb1EE
FNDA:9,_ZN5boost9unit_test4data13invoke_actionINS1_9ds_detail13test_case_genIN34number_theory_with_contracts_suite25parametrized_mcm_testcaseENS1_11monomorphic4gridINS7_5arrayIiEESA_EEEESt5tupleIJRKiSF_EEEEvRKT_OT0_St17integral_constantIbLb1EE
FNDA:1,_ZN5boost9unit_test4data15for_each_sampleINS1_11monomorphic3zipINS3_5arrayIiEES6_EENS1_9ds_detail13test_case_genIN34number_theory_with_contracts_suite26parametrized_sign_testcaseES7_EEEENSt9enable_ifIXsrNS3_10is_datasetIT_EE5valueEvE4typeERKSF_RKT0_NS1_6size_tE
FNDA:1,_ZN5boost9unit_test4data15for_each_sampleINS1_11monomorphic4gridINS3_5arrayIiEES6_EENS1_9ds_detail13test_case_genIN34number_theory_with_contracts_suite25parametrized_div_testcaseES7_EEEENSt9enable_ifIXsrNS3_10is_datasetIT_EE5valueEvE4typeERKSF_RKT0_NS1_6size_tE
FNDA:1,_ZN5boost9unit_test4data15for_each_sampleINS1_11monomorphic4gridINS3_5arrayIiEES6_EENS1_9ds_detail13test_case_genIN34number_theory_with_contracts_suite25parametrized_mcd_testcaseES7_EEEENSt9enable_ifIXsrNS3_10is_datasetIT_EE5valueEvE4typeERKSF_RKT0_NS1_6size_tE
FNDA:1,_ZN5boost9unit_test4data15for_each_sampleINS1_11monomorphic4gridINS3_5arrayIiEES6_EENS1_9ds_detail13test_case_genIN34number_theory_with_contracts_suite25parametrized_mcm_testcaseES7_EEEENSt9enable_ifIXsrNS3_10is_datasetIT_EE5valueEvE4typeERKSF_RKT0_NS1_6size_tE
FNF:12
FNH:12
DA:51,27
DA:55,27
DA:56,27
DA:62,27
DA:64,27
DA:70,27
DA:80,4
DA:84,4
DA:85,4
DA:87,4
DA:89,58
DA:90,27
DA:93,27
DA:95,4
LF:14
LH:14
end_of_record
SF:/usr/local/include/boost/test/data/monomorphic/array.hpp
FN:43,_ZN5boost9unit_test4data11monomorphic5arrayIiEC2EPKim
FN:49,_ZNK5boost9unit_test4data11monomorphic5arrayIiE4sizeEv
FN:50,_ZNK5boost9unit_test4data11monomorphic5arrayIiE5beginEv
FN:71,_ZN5boost9unit_test4data4makeIKiLm2EEENS1_11monomorphic5arrayINS_12remove_constIT_E4typeEEERAT0__S7_
FN:71,_ZN5boost9unit_test4data4makeIKiLm3EEENS1_11monomorphic5arrayINS_12remove_constIT_E4typeEEERAT0__S7_
FNDA:8,_ZN5boost9unit_test4data11monomorphic5arrayIiEC2EPKim
FNDA:38,_ZNK5boost9unit_test4data11monomorphic5arrayIiE4sizeEv
FNDA:16,_ZNK5boost9unit_test4data11monomorphic5arrayIiE5beginEv
FNDA:1,_ZN5boost9unit_test4data4makeIKiLm2EEENS1_11monomorphic5arrayINS_12remove_constIT_E4typeEEERAT0__S7_
FNDA:7,_ZN5boost9unit_test4data4makeIKiLm3EEENS1_11monomorphic5arrayINS_12remove_constIT_E4typeEEERAT0__S7_
FNF:5
FNH:5
DA:43,8
DA:45,8
DA:46,8
DA:49,38
DA:50,16
DA:71,8
DA:73,8
LF:7
LH:7
end_of_record
SF:/usr/local/include/boost/test/data/monomorphic/fwd.hpp
FN:127,_ZN5boost9unit_test4data4makeINS1_11monomorphic4gridINS3_5arrayIiEES6_EEEENSt9enable_ifIXsrNS3_10is_datasetIT_EE5valueESA_E4typeEOSA_
FN:127,_ZN5boost9unit_test4data4makeINS1_11monomorphic5arrayIiEEEENSt9enable_ifIXsrNS3_10is_datasetIT_EE5valueES8_E4typeEOS8_
FNDA:3,_ZN5boost9unit_test4data4makeINS1_11monomorphic4gridINS3_5arrayIiEES6_EEEENSt9enable_ifIXsrNS3_10is_datasetIT_EE5valueESA_E4typeEOSA_
FNDA:1,_ZN5boost9unit_test4data4makeINS1_11monomorphic5arrayIiEEEENSt9enable_ifIXsrNS3_10is_datasetIT_EE5valueES8_E4typeEOS8_
FNF:2
FNH:2
DA:127,4
DA:129,4
LF:2
LH:2
end_of_record
SF:/usr/local/include/boost/test/data/monomorphic/grid.hpp
FN:56,_ZN5boost9unit_test4data11monomorphic4gridINS2_5arrayIiEES5_E8iteratorC2EPKiRKS5_
FN:68,_ZNK5boost9unit_test4data11monomorphic4gridINS2_5arrayIiEES5_E8iteratordeEv
FN:71,_ZN5boost9unit_test4data11monomorphic4gridINS2_5arrayIiEES5_E8iteratorppEv
FN:95,_ZN5boost9unit_test4data11monomorphic4gridINS2_5arrayIiEES5_EC2EOS5_S7_
FN:101,_ZN5boost9unit_test4data11monomorphic4gridINS2_5arrayIiEES5_EC2EOS6_
FN:107,_ZNK5boost9unit_test4data11monomorphic4gridINS2_5arrayIiEES5_E4sizeEv
FN:111,_ZNK5boost9unit_test4data11monomorphic4gridINS2_5arrayIiEES5_E5beginEv
FN:144,_ZN5boost9unit_test4data11monomorphicmlINS2_5arrayIiEES5_EENS_16lazy_enable_if_cIXaasrNS2_10is_datasetIT_EE5valuesrNS7_IT0_EE5valueENS2_9result_of4gridINS_3mpl8identityIS8_EENSF_ISA_EEEEE4typeEOS8_OSA_
FN:156,_ZN5boost9unit_test4data11monomorphicmlINS2_5arrayIiEERA3_KiEENS_16lazy_enable_if_cIXaasrNS2_10is_datasetIT_EE5valuentsrNSA_IT0_EE5valueENS2_9result_of4gridINS_3mpl8identityISB_EENS1_9result_of4makeISD_EEEEE4typeEOSB_OSD_
FNDA:3,_ZN5boost9unit_test4data11monomorphic4gridINS2_5arrayIiEES5_E8iteratorC2EPKiRKS5_
FNDA:24,_ZNK5boost9unit_test4data11monomorphic4gridINS2_5arrayIiEES5_E8iteratordeEv
FNDA:24,_ZN5boost9unit_test4data11monomorphic4gridINS2_5arrayIiEES5_E8iteratorppEv
FNDA:3,_ZN5boost9unit_test4data11monomorphic4gridINS2_5arrayIiEES5_EC2EOS5_S7_
FNDA:6,_ZN5boost9unit_test4data11monomorphic4gridINS2_5arrayIiEES5_EC2EOS6_
FNDA:3,_ZNK5boost9unit_test4data11monomorphic4gridINS2_5arrayIiEES5_E4sizeEv
FNDA:3,_ZNK5boost9unit_test4data11monomorphic4gridINS2_5arrayIiEES5_E5beginEv
FNDA:3,_ZN5boost9unit_test4data11monomorphicmlINS2_5arrayIiEES5_EENS_16lazy_enable_if_cIXaasrNS2_10is_datasetIT_EE5valuesrNS7_IT0_EE5valueENS2_9result_of4gridINS_3mpl8identityIS8_EENSF_ISA_EEEEE4typeEOS8_OSA_
FNDA:3,_ZN5boost9unit_test4data11monomorphicmlINS2_5arrayIiEERA3_KiEENS_16lazy_enable_if_cIXaasrNS2_10is_datasetIT_EE5valuentsrNSA_IT0_EE5valueENS2_9result_of4gridINS_3mpl8identityISB_EENS1_9result_of4makeISD_EEEEE4typeEOSB_OSD_
FNF:9
FNH:9
DA:56,3
DA:57,3
DA:58,6
DA:60,9
DA:61,3
DA:68,24
DA:69,24
DA:71,24
DA:73,24
DA:74,24
DA:75,16
DA:77,8
DA:78,8
DA:79,8
DA:81,24
DA:95,3
DA:96,3
DA:97,3
DA:98,3
DA:101,6
DA:102,6
DA:103,6
DA:104,6
DA:107,3
DA:108,3
DA:109,3
DA:111,3
DA:144,3
DA:146,3
DA:156,3
DA:158,3
LF:31
LH:31
end_of_record
SF:/usr/local/include/boost/test/data/monomorphic/sample_merge.hpp
FN:45,_ZN5boost9unit_test4data11monomorphic9ds_detail21as_tuple_impl_xvaluesIiEEDTcvSt5tupleIJRKT_EEfp_ES8_St17integral_constantIbLb0EE
FN:59,_ZN5boost9unit_test4data11monomorphic9ds_detail13as_tuple_implIRKiEEDTcl21as_tuple_impl_xvaluescl7forwardIT_Efp_EcvNSt19is_rvalue_referenceIOS7_E4typeE_EEES9_St17integral_constantIbLb0EE
FN:75,_ZN5boost9unit_test4data11monomorphic9ds_detail8as_tupleIRKiEEDTcl13as_tuple_implcl7forwardIT_Efp_EcvNS3_8is_tupleIS7_E4typeE_EEEOS7_
FN:88,_ZN5boost9unit_test4data11monomorphic12sample_mergeIRKiS5_EEDTcl9tuple_catcl8as_tuplecl7forwardIT_Efp_EEcl8as_tuplecl7forwardIT0_Efp0_EEEEOS6_OS7_
FNDA:54,_ZN5boost9unit_test4data11monomorphic9ds_detail21as_tuple_impl_xvaluesIiEEDTcvSt5tupleIJRKT_EEfp_ES8_St17integral_constantIbLb0EE
FNDA:54,_ZN5boost9unit_test4data11monomorphic9ds_detail13as_tuple_implIRKiEEDTcl21as_tuple_impl_xvaluescl7forwardIT_Efp_EcvNSt19is_rvalue_referenceIOS7_E4typeE_EEES9_St17integral_constantIbLb0EE
FNDA:54,_ZN5boost9unit_test4data11monomorphic9ds_detail8as_tupleIRKiEEDTcl13as_tuple_implcl7forwardIT_Efp_EcvNS3_8is_tupleIS7_E4typeE_EEEOS7_
FNDA:27,_ZN5boost9unit_test4data11monomorphic12sample_mergeIRKiS5_EEDTcl9tuple_catcl8as_tuplecl7forwardIT_Efp_EEcl8as_tuplecl7forwardIT0_Efp0_EEEEOS6_OS7_
FNF:4
FNH:4
DA:45,54
DA:48,54
DA:59,54
DA:63,54
DA:75,54
DA:79,54
DA:88,27
DA:92,27
LF:8
LH:8
end_of_record
SF:/usr/local/include/boost/test/data/monomorphic/zip.hpp
FN:52,_ZN5boost9unit_test4data11monomorphic3zipINS2_5arrayIiEES5_E8iteratorC2EPKiS9_
FN:62,_ZNK5boost9unit_test4data11monomorphic3zipINS2_5arrayIiEES5_E8iteratordeEv
FN:65,_ZN5boost9unit_test4data11monomorphic3zipINS2_5arrayIiEES5_E8iteratorppEv
FN:78,_ZN5boost9unit_test4data11monomorphic3zipINS2_5arrayIiEES5_EC2EOS5_S7_
FN:85,_ZN5boost9unit_test4data11monomorphic3zipINS2_5arrayIiEES5_EC2EOS6_
FN:92,_ZNK5boost9unit_test4data11monomorphic3zipINS2_5arrayIiEES5_E4sizeEv
FN:93,_ZNK5boost9unit_test4data11monomorphic3zipINS2_5arrayIiEES5_E5beginEv
FN:103,_ZNK5boost9unit_test4data11monomorphic3zipINS2_5arrayIiEES5_E8zip_sizeEv
FN:146,_ZN5boost9unit_test4data11monomorphiceoINS2_5arrayIiEES5_EENS_16lazy_enable_if_cIXaasrNS2_10is_datasetIT_EE5valuesrNS7_IT0_EE5valueENS2_9result_of3zipINS_3mpl8identityIS8_EENSF_ISA_EEEEE4typeEOS8_OSA_
FN:160,_ZN5boost9unit_test4data11monomorphiceoINS2_5arrayIiEERA3_KiEENS_16lazy_enable_if_cIXaasrNS2_10is_datasetIT_EE5valuentsrNSA_IT0_EE5valueENS2_9result_of3zipINS_3mpl8identityISB_EENS1_9result_of4makeISD_EEEEE4typeEOSB_OSD_
FNDA:1,_ZN5boost9unit_test4data11monomorphic3zipINS2_5arrayIiEES5_E8iteratorC2EPKiS9_
FNDA:3,_ZNK5boost9unit_test4data11monomorphic3zipINS2_5arrayIiEES5_E8iteratordeEv
FNDA:3,_ZN5boost9unit_test4data11monomorphic3zipINS2_5arrayIiEES5_E8iteratorppEv
FNDA:1,_ZN5boost9unit_test4data11monomorphic3zipINS2_5arrayIiEES5_EC2EOS5_S7_
FNDA:1,_ZN5boost9unit_test4data11monomorphic3zipINS2_5arrayIiEES5_EC2EOS6_
FNDA:1,_ZNK5boost9unit_test4data11monomorphic3zipINS2_5arrayIiEES5_E4sizeEv
FNDA:1,_ZNK5boost9unit_test4data11monomorphic3zipINS2_5arrayIiEES5_E5beginEv
FNDA:1,_ZNK5boost9unit_test4data11monomorphic3zipINS2_5arrayIiEES5_E8zip_sizeEv
FNDA:1,_ZN5boost9unit_test4data11monomorphiceoINS2_5arrayIiEES5_EENS_16lazy_enable_if_cIXaasrNS2_10is_datasetIT_EE5valuesrNS7_IT0_EE5valueENS2_9result_of3zipINS_3mpl8identityIS8_EENSF_ISA_EEEEE4typeEOS8_OSA_
FNDA:1,_ZN5boost9unit_test4data11monomorphiceoINS2_5arrayIiEERA3_KiEENS_16lazy_enable_if_cIXaasrNS2_10is_datasetIT_EE5valuentsrNSA_IT0_EE5valueENS2_9result_of3zipINS_3mpl8identityISB_EENS1_9result_of4makeISD_EEEEE4typeEOSB_OSD_
FNF:10
FNH:10
DA:52,1
DA:53,1
DA:54,1
DA:55,1
DA:62,3
DA:63,3
DA:65,3
DA:78,1
DA:79,1
DA:80,1
DA:82,1
DA:85,1
DA:86,1
DA:87,1
DA:89,1
DA:92,1
DA:93,1
DA:103,1
DA:105,1
DA:106,1
DA:108,1
DA:109,1
DA:111,0
DA:112,0
DA:114,0
DA:115,0
DA:117,0
DA:146,1
DA:150,1
DA:160,1
DA:162,1
LF:31
LH:26
end_of_record
SF:/usr/local/include/boost/test/data/size.hpp
FN:39,_ZN5boost9unit_test4data6size_tC2Em
FN:40,_ZN5boost9unit_test4data6size_tC2Eb
FN:42,_ZN5boost9unit_test4data6size_tC2IiEET_
FN:45,_ZNK5boost9unit_test4data6size_t5valueEv
FN:46,_ZNK5boost9unit_test4data6size_t6is_infEv
FN:51,_ZN5boost9unit_test4data6size_tmmEi
FN:52,_ZN5boost9unit_test4data6size_tppEv
FN:90,_ZN5boost9unit_test4datagtENS1_6size_tEm
FN:100,_ZN5boost9unit_test4dataltENS1_6size_tES2_
FN:106,_ZN5boost9unit_test4dataeqENS1_6size_tEm
FN:108,_ZN5boost9unit_test4dataeqENS1_6size_tES2_
FN:112,_ZN5boost9unit_test4dataneENS1_6size_tES2_
FN:120,_ZN5boost9unit_test4datamlENS1_6size_tES2_
FNDA:41,_ZN5boost9unit_test4data6size_tC2Em
FNDA:1,_ZN5boost9unit_test4data6size_tC2Eb
FNDA:11,_ZN5boost9unit_test4data6size_tC2IiEET_
FNDA:87,_ZNK5boost9unit_test4data6size_t5valueEv
FNDA:164,_ZNK5boost9unit_test4data6size_t6is_infEv
FNDA:31,_ZN5boost9unit_test4data6size_tmmEi
FNDA:24,_ZN5boost9unit_test4data6size_tppEv
FNDA:31,_ZN5boost9unit_test4datagtENS1_6size_tEm
FNDA:4,_ZN5boost9unit_test4dataltENS1_6size_tES2_
FNDA:0,_ZN5boost9unit_test4dataeqENS1_6size_tEm
FNDA:1,_ZN5boost9unit_test4dataeqENS1_6size_tES2_
FNDA:24,_ZN5boost9unit_test4dataneENS1_6size_tES2_
FNDA:3,_ZN5boost9unit_test4datamlENS1_6size_tES2_
FNF:13
FNH:12
DA:39,41
DA:40,1
DA:42,11
DA:45,87
DA:46,164
DA:51,31
DA:52,24
DA:85,1
DA:90,31
DA:100,4
DA:106,0
DA:108,1
DA:112,24
DA:120,3
LF:14
LH:13
end_of_record
SF:/usr/local/include/boost/test/data/test_case.hpp
FN:66,_ZNK5boost9unit_test4data9ds_detail4seedpmINS1_11monomorphic5arrayIiEEEENS1_9result_of4makeIT_E4typeEOSA_
FN:66,_ZNK5boost9unit_test4data9ds_detail4seedpmINS1_11monomorphic4gridINS5_5arrayIiEES8_EEEENS1_9result_of4makeIT_E4typeEOSC_
FN:100,_ZN5boost9unit_test4data9ds_detail36boost_bind_rvalue_holder_helper_implIRKiEEOT_S7_NS_17integral_constantIbLb1EEE
FN:105,_ZN5boost9unit_test4data9ds_detail31boost_bind_rvalue_holder_helperIRKiEEDTcl36boost_bind_rvalue_holder_helper_implcl7forwardIT_Efp_EcvNS_21is_copy_constructibleINSt16remove_referenceIS6_E4typeEE4typeE_EEEOS6_
FN:124,_ZN5boost9unit_test4data9ds_detail13test_case_genIN34number_theory_with_contracts_suite25parametrized_mcm_testcaseENS1_11monomorphic4gridINS6_5arrayIiEES9_EEED0Ev
FN:124,_ZN5boost9unit_test4data9ds_detail13test_case_genIN34number_theory_with_contracts_suite25parametrized_mcm_testcaseENS1_11monomorphic4gridINS6_5arrayIiEES9_EEED2Ev
FN:124,_ZN5boost9unit_test4data9ds_detail13test_case_genIN34number_theory_with_contracts_suite25parametrized_mcd_testcaseENS1_11monomorphic4gridINS6_5arrayIiEES9_EEED2Ev
FN:124,_ZN5boost9unit_test4data9ds_detail13test_case_genIN34number_theory_with_contracts_suite25parametrized_div_testcaseENS1_11monomorphic4gridINS6_5arrayIiEES9_EEED0Ev
FN:124,_ZN5boost9unit_test4data9ds_detail13test_case_genIN34number_theory_with_contracts_suite26parametrized_sign_testcaseENS1_11monomorphic3zipINS6_5arrayIiEES9_EEED0Ev
FN:124,_ZN5boost9unit_test4data9ds_detail13test_case_genIN34number_theory_with_contracts_suite25parametrized_div_testcaseENS1_11monomorphic4gridINS6_5arrayIiEES9_EEED2Ev
FN:124,_ZN5boost9unit_test4data9ds_detail13test_case_genIN34number_theory_with_contracts_suite25parametrized_mcd_testcaseENS1_11monomorphic4gridINS6_5arrayIiEES9_EEED0Ev
FN:124,_ZN5boost9unit_test4data9ds_detail13test_case_genIN34number_theory_with_contracts_suite26parametrized_sign_testcaseENS1_11monomorphic3zipINS6_5arrayIiEES9_EEED2Ev
FN:128,_ZN5boost9unit_test4data9ds_detail13test_case_genIN34number_theory_with_contracts_suite25parametrized_mcm_testcaseENS1_11monomorphic4gridINS6_5arrayIiEES9_EEEC2ENS0_13basic_cstringIKcEESE_mOSA_
FN:128,_ZN5boost9unit_test4data9ds_detail13test_case_genIN34number_theory_with_contracts_suite25parametrized_mcd_testcaseENS1_11monomorphic4gridINS6_5arrayIiEES9_EEEC2ENS0_13basic_cstringIKcEESE_mOSA_
FN:128,_ZN5boost9unit_test4data9ds_detail13test_case_genIN34number_theory_with_contracts_suite25parametrized_div_testcaseENS1_11monomorphic4gridINS6_5arrayIiEES9_EEEC2ENS0_13basic_cstringIKcEESE_mOSA_
FN:128,_ZN5boost9unit_test4data9ds_detail13test_case_genIN34number_theory_with_contracts_suite26parametrized_sign_testcaseENS1_11monomorphic3zipINS6_5arrayIiEES9_EEEC2ENS0_13basic_cstringIKcEESE_mOSA_
FN:157,_ZNK5boost9unit_test4data9ds_detail13test_case_genIN34number_theory_with_contracts_suite25parametrized_mcd_testcaseENS1_11monomorphic4gridINS6_5arrayIiEES9_EEE4nextEv
FN:157,_ZNK5boost9unit_test4data9ds_detail13test_case_genIN34number_theory_with_contracts_suite25parametrized_div_testcaseENS1_11monomorphic4gridINS6_5arrayIiEES9_EEE4nextEv
FN:157,_ZNK5boost9unit_test4data9ds_detail13test_case_genIN34number_theory_with_contracts_suite26parametrized_sign_testcaseENS1_11monomorphic3zipINS6_5arrayIiEES9_EEE4nextEv
FN:157,_ZNK5boost9unit_test4data9ds_detail13test_case_genIN34number_theory_with_contracts_suite25parametrized_mcm_testcaseENS1_11monomorphic4gridINS6_5arrayIiEES9_EEE4nextEv
FN:189,_ZNK5boost9unit_test4data9ds_detail13test_case_genIN34number_theory_with_contracts_suite25parametrized_mcd_testcaseENS1_11monomorphic4gridINS6_5arrayIiEES9_EEEclIJRKiSE_EEEvDpOT_
FN:189,_ZNK5boost9unit_test4data9ds_detail13test_case_genIN34number_theory_with_contracts_suite25parametrized_div_testcaseENS1_11monomorphic4gridINS6_5arrayIiEES9_EEEclIJRKiSE_EEEvDpOT_
FN:189,_ZNK5boost9unit_test4data9ds_detail13test_case_genIN34number_theory_with_contracts_suite25parametrized_mcm_testcaseENS1_11monomorphic4gridINS6_5arrayIiEES9_EEEclIJRKiSE_EEEvDpOT_
FN:189,_ZNK5boost9unit_test4data9ds_detail13test_case_genIN34number_theory_with_contracts_suite26parametrized_sign_testcaseENS1_11monomorphic3zipINS6_5arrayIiEES9_EEEclIJRKiSE_EEEvDpOT_
FN:201,_ZNK5boost9unit_test4data9ds_detail13test_case_genIN34number_theory_with_contracts_suite26parametrized_sign_testcaseENS1_11monomorphic3zipINS6_5arrayIiEES9_EEE15genTestCaseNameB5cxx11Ev
FN:201,_ZNK5boost9unit_test4data9ds_detail13test_case_genIN34number_theory_with_contracts_suite25parametrized_mcd_testcaseENS1_11monomorphic4gridINS6_5arrayIiEES9_EEE15genTestCaseNameB5cxx11Ev
FN:201,_ZNK5boost9unit_test4data9ds_detail13test_case_genIN34number_theory_with_contracts_suite25parametrized_mcm_testcaseENS1_11monomorphic4gridINS6_5arrayIiEES9_EEE15genTestCaseNameB5cxx11Ev
FN:201,_ZNK5boost9unit_test4data9ds_detail13test_case_genIN34number_theory_with_contracts_suite25parametrized_div_testcaseENS1_11monomorphic4gridINS6_5arrayIiEES9_EEE15genTestCaseNameB5cxx11Ev
FN:221,_ZN5boost9unit_test4data9ds_detail18make_test_case_genIN34number_theory_with_contracts_suite25parametrized_div_testcaseENS1_11monomorphic4gridINS6_5arrayIiEES9_EEEENS_10shared_ptrINS0_19test_unit_generatorEEENS0_13basic_cstringIKcEESG_mOT0_
FN:221,_ZN5boost9unit_test4data9ds_detail18make_test_case_genIN34number_theory_with_contracts_suite25parametrized_mcm_testcaseENS1_11monomorphic4gridINS6_5arrayIiEES9_EEEENS_10shared_ptrINS0_19test_unit_generatorEEENS0_13basic_cstringIKcEESG_mOT0_
FN:221,_ZN5boost9unit_test4data9ds_detail18make_test_case_genIN34number_theory_with_contracts_suite25parametrized_mcd_testcaseENS1_11monomorphic4gridINS6_5arrayIiEES9_EEEENS_10shared_ptrINS0_19test_unit_generatorEEENS0_13basic_cstringIKcEESG_mOT0_
FN:221,_ZN5boost9unit_test4data9ds_detail18make_test_case_genIN34number_theory_with_contracts_suite26parametrized_sign_testcaseENS1_11monomorphic3zipINS6_5arrayIiEES9_EEEENS_10shared_ptrINS0_19test_unit_generatorEEENS0_13basic_cstringIKcEESG_mOT0_
FNDA:3,_ZNK5boost9unit_test4data9ds_detail4seedpmINS1_11monomorphic4gridINS5_5arrayIiEES8_EEEENS1_9result_of4makeIT_E4typeEOSC_
FNDA:1,_ZNK5boost9unit_test4data9ds_detail4seedpmINS1_11monomorphic5arrayIiEEEENS1_9result_of4makeIT_E4typeEOSA_
FNDA:54,_ZN5boost9unit_test4data9ds_detail36boost_bind_rvalue_holder_helper_implIRKiEEOT_S7_NS_17integral_constantIbLb1EEE
FNDA:54,_ZN5boost9unit_test4data9ds_detail31boost_bind_rvalue_holder_helperIRKiEEDTcl36boost_bind_rvalue_holder_helper_implcl7forwardIT_Efp_EcvNS_21is_copy_constructibleINSt16remove_referenceIS6_E4typeEE4typeE_EEEOS6_
FNDA:1,_ZN5boost9unit_test4data9ds_detail13test_case_genIN34number_theory_with_contracts_suite25parametrized_mcm_testcaseENS1_11monomorphic4gridINS6_5arrayIiEES9_EEED0Ev
FNDA:1,_ZN5boost9unit_test4data9ds_detail13test_case_genIN34number_theory_with_contracts_suite25parametrized_mcm_testcaseENS1_11monomorphic4gridINS6_5arrayIiEES9_EEED2Ev
FNDA:1,_ZN5boost9unit_test4data9ds_detail13test_case_genIN34number_theory_with_contracts_suite25parametrized_mcd_testcaseENS1_11monomorphic4gridINS6_5arrayIiEES9_EEED0Ev
FNDA:1,_ZN5boost9unit_test4data9ds_detail13test_case_genIN34number_theory_with_contracts_suite25parametrized_mcd_testcaseENS1_11monomorphic4gridINS6_5arrayIiEES9_EEED2Ev
FNDA:1,_ZN5boost9unit_test4data9ds_detail13test_case_genIN34number_theory_with_contracts_suite25parametrized_div_testcaseENS1_11monomorphic4gridINS6_5arrayIiEES9_EEED0Ev
FNDA:1,_ZN5boost9unit_test4data9ds_detail13test_case_genIN34number_theory_with_contracts_suite25parametrized_div_testcaseENS1_11monomorphic4gridINS6_5arrayIiEES9_EEED2Ev
FNDA:1,_ZN5boost9unit_test4data9ds_detail13test_case_genIN34number_theory_with_contracts_suite26parametrized_sign_testcaseENS1_11monomorphic3zipINS6_5arrayIiEES9_EEED0Ev
FNDA:1,_ZN5boost9unit_test4data9ds_detail13test_case_genIN34number_theory_with_contracts_suite26parametrized_sign_testcaseENS1_11monomorphic3zipINS6_5arrayIiEES9_EEED2Ev
FNDA:1,_ZN5boost9unit_test4data9ds_detail13test_case_genIN34number_theory_with_contracts_suite25parametrized_mcm_testcaseENS1_11monomorphic4gridINS6_5arrayIiEES9_EEEC2ENS0_13basic_cstringIKcEESE_mOSA_
FNDA:1,_ZN5boost9unit_test4data9ds_detail13test_case_genIN34number_theory_with_contracts_suite25parametrized_mcd_testcaseENS1_11monomorphic4gridINS6_5arrayIiEES9_EEEC2ENS0_13basic_cstringIKcEESE_mOSA_
FNDA:1,_ZN5boost9unit_test4data9ds_detail13test_case_genIN34number_theory_with_contracts_suite25parametrized_div_testcaseENS1_11monomorphic4gridINS6_5arrayIiEES9_EEEC2ENS0_13basic_cstringIKcEESE_mOSA_
FNDA:1,_ZN5boost9unit_test4data9ds_detail13test_case_genIN34number_theory_with_contracts_suite26parametrized_sign_testcaseENS1_11monomorphic3zipINS6_5arrayIiEES9_EEEC2ENS0_13basic_cstringIKcEESE_mOSA_
FNDA:4,_ZNK5boost9unit_test4data9ds_detail13test_case_genIN34number_theory_with_contracts_suite26parametrized_sign_testcaseENS1_11monomorphic3zipINS6_5arrayIiEES9_EEE4nextEv
FNDA:7,_ZNK5boost9unit_test4data9ds_detail13test_case_genIN34number_theory_with_contracts_suite25parametrized_div_testcaseENS1_11monomorphic4gridINS6_5arrayIiEES9_EEE4nextEv
FNDA:10,_ZNK5boost9unit_test4data9ds_detail13test_case_genIN34number_theory_with_contracts_suite25parametrized_mcd_testcaseENS1_11monomorphic4gridINS6_5arrayIiEES9_EEE4nextEv
FNDA:10,_ZNK5boost9unit_test4data9ds_detail13test_case_genIN34number_theory_with_contracts_suite25parametrized_mcm_testcaseENS1_11monomorphic4gridINS6_5arrayIiEES9_EEE4nextEv
FNDA:3,_ZNK5boost9unit_test4data9ds_detail13test_case_genIN34number_theory_with_contracts_suite26parametrized_sign_testcaseENS1_11monomorphic3zipINS6_5arrayIiEES9_EEEclIJRKiSE_EEEvDpOT_
FNDA:6,_ZNK5boost9unit_test4data9ds_detail13test_case_genIN34number_theory_with_contracts_suite25parametrized_div_testcaseENS1_11monomorphic4gridINS6_5arrayIiEES9_EEEclIJRKiSE_EEEvDpOT_
FNDA:9,_ZNK5boost9unit_test4data9ds_detail13test_case_genIN34number_theory_with_contracts_suite25parametrized_mcd_testcaseENS1_11monomorphic4gridINS6_5arrayIiEES9_EEEclIJRKiSE_EEEvDpOT_
FNDA:9,_ZNK5boost9unit_test4data9ds_detail13test_case_genIN34number_theory_with_contracts_suite25parametrized_mcm_testcaseENS1_11monomorphic4gridINS6_5arrayIiEES9_EEEclIJRKiSE_EEEvDpOT_
FNDA:3,_ZNK5boost9unit_test4data9ds_detail13test_case_genIN34number_theory_with_contracts_suite26parametrized_sign_testcaseENS1_11monomorphic3zipINS6_5arrayIiEES9_EEE15genTestCaseNameB5cxx11Ev
FNDA:6,_ZNK5boost9unit_test4data9ds_detail13test_case_genIN34number_theory_with_contracts_suite25parametrized_div_testcaseENS1_11monomorphic4gridINS6_5arrayIiEES9_EEE15genTestCaseNameB5cxx11Ev
FNDA:9,_ZNK5boost9unit_test4data9ds_detail13test_case_genIN34number_theory_with_contracts_suite25parametrized_mcd_testcaseENS1_11monomorphic4gridINS6_5arrayIiEES9_EEE15genTestCaseNameB5cxx11Ev
FNDA:9,_ZNK5boost9unit_test4data9ds_detail13test_case_genIN34number_theory_with_contracts_suite25parametrized_mcm_testcaseENS1_11monomorphic4gridINS6_5arrayIiEES9_EEE15genTestCaseNameB5cxx11Ev
FNDA:1,_ZN5boost9unit_test4data9ds_detail18make_test_case_genIN34number_theory_with_contracts_suite25parametrized_mcm_testcaseENS1_11monomorphic4gridINS6_5arrayIiEES9_EEEENS_10shared_ptrINS0_19test_unit_generatorEEENS0_13basic_cstringIKcEESG_mOT0_
FNDA:1,_ZN5boost9unit_test4data9ds_detail18make_test_case_genIN34number_theory_with_contracts_suite25parametrized_mcd_testcaseENS1_11monomorphic4gridINS6_5arrayIiEES9_EEEENS_10shared_ptrINS0_19test_unit_generatorEEENS0_13basic_cstringIKcEESG_mOT0_
FNDA:1,_ZN5boost9unit_test4data9ds_detail18make_test_case_genIN34number_theory_with_contracts_suite25parametrized_div_testcaseENS1_11monomorphic4gridINS6_5arrayIiEES9_EEEENS_10shared_ptrINS0_19test_unit_generatorEEENS0_13basic_cstringIKcEESG_mOT0_
FNDA:1,_ZN5boost9unit_test4data9ds_detail18make_test_case_genIN34number_theory_with_contracts_suite26parametrized_sign_testcaseENS1_11monomorphic3zipINS6_5arrayIiEES9_EEEENS_10shared_ptrINS0_19test_unit_generatorEEENS0_13basic_cstringIKcEESG_mOT0_
FNF:32
FNH:32
DA:66,4
DA:68,4
DA:100,54
DA:101,54
DA:105,54
DA:111,108
DA:113,108
DA:124,8
DA:128,4
DA:134,4
DA:135,4
DA:157,31
DA:159,31
DA:160,4
DA:161,4
DA:164,31
DA:165,4
DA:167,27
DA:168,27
DA:170,27
DA:189,27
DA:191,54
DA:192,54
DA:194,27
DA:197,27
DA:201,27
DA:203,27
DA:221,4
DA:223,4
LF:29
LH:29
end_of_record
SF:/usr/local/include/boost/test/detail/throw_exception.hpp
FN:48,_ZN5boost9unit_test9ut_detail15throw_exceptionISt11logic_errorEEvRKT_
FNDA:0,_ZN5boost9unit_test9ut_detail15throw_exceptionISt11logic_errorEEvRKT_
FNF:1
FNH:0
DA:48,0
LF:1
LH:0
end_of_record
SF:/usr/local/include/boost/test/detail/workaround.hpp
FN:46,_ZN5boost9unit_test9ut_detail30ignore_unused_variable_warningINS_8contract17assertion_failureEEEvRKT_
FNDA:3,_ZN5boost9unit_test9ut_detail30ignore_unused_variable_warningINS_8contract17assertion_failureEEEvRKT_
FNF:1
FNH:1
DA:46,3
LF:1
LH:1
end_of_record
SF:/usr/local/include/boost/test/tools/assertion_result.hpp
FN:39,_ZN5boost10test_tools16assertion_resultD2Ev
FN:52,_ZN5boost10test_tools16assertion_resultC2Eb
FN:65,_ZN5boost10test_tools16assertion_result19readonly_property65C2Eb
FNDA:30,_ZN5boost10test_tools16assertion_resultD2Ev
FNDA:30,_ZN5boost10test_tools16assertion_resultC2Eb
FNDA:30,_ZN5boost10test_tools16assertion_result19readonly_property65C2Eb
FNF:3
FNH:3
DA:39,30
DA:52,30
DA:53,30
DA:54,30
DA:65,30
LF:5
LH:5
end_of_record
SF:/usr/local/include/boost/test/tools/detail/fwd.hpp
FN:45,_ZN5boost10test_tools9tt_detail10dummy_condEv
FNDA:33,_ZN5boost10test_tools9tt_detail10dummy_condEv
FNF:1
FNH:1
DA:45,33
LF:1
LH:1
end_of_record
SF:/usr/local/include/boost/test/tools/detail/print_helper.hpp
FN:51,_ZN5boost10test_tools9tt_detail4impl21boost_test_print_typeIiEERSoS4_RKT_
FN:60,_ZNK5boost10test_tools9tt_detail4impl26boost_test_print_type_implclIiEERSoS5_RKT_
FN:82,_ZN5boost10test_tools9tt_detail15print_log_valueIiEclERSoRKi
FN:96,_ZN5boost10test_tools9tt_detail15print_log_valueIiE13set_precisionERSoN4mpl_5bool_ILb0EEE
FN:187,_ZN5boost10test_tools9tt_detail14print_helper_tIiEC2ERKi
FN:208,_ZN5boost10test_tools9tt_detail12print_helperIiEENS1_14print_helper_tIT_EERKS4_
FN:217,_ZN5boost10test_tools9tt_detaillsIiEERSoS3_RKNS1_14print_helper_tIT_EE
FNDA:54,_ZN5boost10test_tools9tt_detail4impl21boost_test_print_typeIiEERSoS4_RKT_
FNDA:54,_ZNK5boost10test_tools9tt_detail4impl26boost_test_print_type_implclIiEERSoS5_RKT_
FNDA:54,_ZN5boost10test_tools9tt_detail15print_log_valueIiEclERSoRKi
FNDA:54,_ZN5boost10test_tools9tt_detail15print_log_valueIiE13set_precisionERSoN4mpl_5bool_ILb0EEE
FNDA:72,_ZN5boost10test_tools9tt_detail14print_helper_tIiEC2ERKi
FNDA:72,_ZN5boost10test_tools9tt_detail12print_helperIiEENS1_14print_helper_tIT_EERKS4_
FNDA:54,_ZN5boost10test_tools9tt_detaillsIiEERSoS3_RKNS1_14print_helper_tIT_EE
FNF:7
FNH:7
DA:51,54
DA:54,54
DA:55,54
DA:60,54
DA:61,54
DA:82,54
DA:86,54
DA:90,54
DA:92,54
DA:93,54
DA:94,54
DA:96,54
DA:99,54
DA:187,72
DA:208,72
DA:210,72
DA:217,54
DA:219,54
DA:221,54
LF:19
LH:19
end_of_record
SF:/usr/local/include/boost/test/tools/old/impl.hpp
FN:92,_ZN5boost10test_tools9tt_detail10check_frwdINS1_15equal_impl_frwdEiiEEbT_RKNS_9unit_test12lazy_ostreamENS5_13basic_cstringIKcEEmNS1_10tool_levelENS1_10check_typeERKT0_PSA_RKT1_SH_
FN:105,_ZN5boost10test_tools9tt_detail10equal_implIiiEENS0_16assertion_resultERKT_RKT0_
FN:128,_ZNK5boost10test_tools9tt_detail15equal_impl_frwd9call_implIiiEENS0_16assertion_resultERKT_RKT0_N4mpl_5bool_ILb0EEE
FN:142,_ZNK5boost10test_tools9tt_detail15equal_impl_frwdclIiiEENS0_16assertion_resultERKT_RKT0_
FNDA:9,_ZN5boost10test_tools9tt_detail10check_frwdINS1_15equal_impl_frwdEiiEEbT_RKNS_9unit_test12lazy_ostreamENS5_13basic_cstringIKcEEmNS1_10tool_levelENS1_10check_typeERKT0_PSA_RKT1_SH_
FNDA:9,_ZN5boost10test_tools9tt_detail10equal_implIiiEENS0_16assertion_resultERKT_RKT0_
FNDA:9,_ZNK5boost10test_tools9tt_detail15equal_impl_frwd9call_implIiiEENS0_16assertion_resultERKT_RKT0_N4mpl_5bool_ILb0EEE
FNDA:9,_ZNK5boost10test_tools9tt_detail15equal_impl_frwdclIiiEENS0_16assertion_resultERKT_RKT0_
FNF:4
FNH:4
DA:92,9
DA:105,9
DA:107,9
DA:128,9
DA:130,9
DA:142,9
DA:145,9
LF:7
LH:7
end_of_record
SF:/usr/local/include/boost/test/tree/decorator.hpp
FN:55,_ZN5boost9unit_test9decorator9collectorD2Ev
FN:66,_ZN5boost9unit_test9decorator9collectorC2Ev
FNDA:1,_ZN5boost9unit_test9decorator9collectorD2Ev
FNDA:1,_ZN5boost9unit_test9decorator9collectorC2Ev
FNF:2
FNH:2
DA:55,1
DA:66,1
LF:2
LH:2
end_of_record
SF:/usr/local/include/boost/test/tree/fixture.hpp
FN:98,_ZN5boost9unit_test12impl_fixture10call_setupILb0EEclIN34number_theory_with_contracts_suite32check_incorrect_precondition_divEEEvRT_
FN:98,_ZN5boost9unit_test12impl_fixture10call_setupILb0EEclIN34number_theory_with_contracts_suite32check_incorrect_precondition_mcmEEEvRT_
FN:98,_ZN5boost9unit_test12impl_fixture10call_setupILb0EEclIN34number_theory_with_contracts_suite32check_incorrect_precondition_mcdEEEvRT_
FN:104,_ZN5boost9unit_test12impl_fixture13call_teardownILb0EEclIN34number_theory_with_contracts_suite32check_incorrect_precondition_mcdEEEvRT_
FN:104,_ZN5boost9unit_test12impl_fixture13call_teardownILb0EEclIN34number_theory_with_contracts_suite32check_incorrect_precondition_divEEEvRT_
FN:104,_ZN5boost9unit_test12impl_fixture13call_teardownILb0EEclIN34number_theory_with_contracts_suite32check_incorrect_precondition_mcmEEEvRT_
FN:112,_ZN5boost9unit_test17setup_conditionalIN34number_theory_with_contracts_suite32check_incorrect_precondition_divEEEvRT_
FN:112,_ZN5boost9unit_test17setup_conditionalIN34number_theory_with_contracts_suite32check_incorrect_precondition_mcmEEEvRT_
FN:112,_ZN5boost9unit_test17setup_conditionalIN34number_theory_with_contracts_suite32check_incorrect_precondition_mcdEEEvRT_
FN:118,_ZN5boost9unit_test20teardown_conditionalIN34number_theory_with_contracts_suite32check_incorrect_precondition_mcmEEEvRT_
FN:118,_ZN5boost9unit_test20teardown_conditionalIN34number_theory_with_contracts_suite32check_incorrect_precondition_divEEEvRT_
FN:118,_ZN5boost9unit_test20teardown_conditionalIN34number_theory_with_contracts_suite32check_incorrect_precondition_mcdEEEvRT_
FNDA:1,_ZN5boost9unit_test12impl_fixture10call_setupILb0EEclIN34number_theory_with_contracts_suite32check_incorrect_precondition_mcmEEEvRT_
FNDA:1,_ZN5boost9unit_test12impl_fixture10call_setupILb0EEclIN34number_theory_with_contracts_suite32check_incorrect_precondition_mcdEEEvRT_
FNDA:1,_ZN5boost9unit_test12impl_fixture10call_setupILb0EEclIN34number_theory_with_contracts_suite32check_incorrect_precondition_divEEEvRT_
FNDA:1,_ZN5boost9unit_test12impl_fixture13call_teardownILb0EEclIN34number_theory_with_contracts_suite32check_incorrect_precondition_mcmEEEvRT_
FNDA:1,_ZN5boost9unit_test12impl_fixture13call_teardownILb0EEclIN34number_theory_with_contracts_suite32check_incorrect_precondition_mcdEEEvRT_
FNDA:1,_ZN5boost9unit_test12impl_fixture13call_teardownILb0EEclIN34number_theory_with_contracts_suite32check_incorrect_precondition_divEEEvRT_
FNDA:1,_ZN5boost9unit_test17setup_conditionalIN34number_theory_with_contracts_suite32check_incorrect_precondition_mcmEEEvRT_
FNDA:1,_ZN5boost9unit_test17setup_conditionalIN34number_theory_with_contracts_suite32check_incorrect_precondition_mcdEEEvRT_
FNDA:1,_ZN5boost9unit_test17setup_conditionalIN34number_theory_with_contracts_suite32check_incorrect_precondition_divEEEvRT_
FNDA:1,_ZN5boost9unit_test20teardown_conditionalIN34number_theory_with_contracts_suite32check_incorrect_precondition_mcmEEEvRT_
FNDA:1,_ZN5boost9unit_test20teardown_conditionalIN34number_theory_with_contracts_suite32check_incorrect_precondition_mcdEEEvRT_
FNDA:1,_ZN5boost9unit_test20teardown_conditionalIN34number_theory_with_contracts_suite32check_incorrect_precondition_divEEEvRT_
FNF:12
FNH:12
DA:98,3
DA:104,3
DA:112,3
DA:113,3
DA:118,3
DA:119,3
LF:6
LH:6
end_of_record
SF:/usr/local/include/boost/test/tree/global_fixture.hpp
FN:44,_ZN5boost9unit_test20global_configuration8priorityEv
FN:68,_ZN5boost9unit_test9ut_detail25global_configuration_implI1FED2Ev
FN:68,_ZN5boost9unit_test9ut_detail25global_configuration_implI1FED0Ev
FN:70,_ZN5boost9unit_test9ut_detail25global_configuration_implI1FEC2Ev
FN:74,_ZN5boost9unit_test9ut_detail25global_configuration_implI1FE10test_startEm
FN:79,_ZN5boost9unit_test9ut_detail25global_configuration_implI1FE11test_finishEv
FNDA:22,_ZN5boost9unit_test20global_configuration8priorityEv
FNDA:0,_ZN5boost9unit_test9ut_detail25global_configuration_implI1FED0Ev
FNDA:1,_ZN5boost9unit_test9ut_detail25global_configuration_implI1FED2Ev
FNDA:1,_ZN5boost9unit_test9ut_detail25global_configuration_implI1FEC2Ev
FNDA:1,_ZN5boost9unit_test9ut_detail25global_configuration_implI1FE10test_startEm
FNDA:1,_ZN5boost9unit_test9ut_detail25global_configuration_implI1FE11test_finishEv
FNF:6
FNH:5
DA:44,22
DA:68,1
DA:70,1
DA:71,1
DA:74,1
DA:75,1
DA:76,1
DA:79,1
DA:80,1
DA:81,1
DA:82,1
DA:84,1
LF:12
LH:12
end_of_record
SF:/usr/local/include/boost/test/tree/observer.hpp
FN:40,_ZN5boost9unit_test13test_observerC2Ev
FN:47,_ZN5boost9unit_test13test_observer10test_startEm
FN:52,_ZN5boost9unit_test13test_observer11test_finishEv
FN:61,_ZN5boost9unit_test13test_observer12test_abortedEv
FN:66,_ZN5boost9unit_test13test_observer15test_unit_startERKNS0_9test_unitE
FN:71,_ZN5boost9unit_test13test_observer16test_unit_finishERKNS0_9test_unitEm
FN:72,_ZN5boost9unit_test13test_observer17test_unit_skippedERKNS0_9test_unitENS0_13basic_cstringIKcEE
FN:73,_ZN5boost9unit_test13test_observer17test_unit_skippedERKNS0_9test_unitE
FN:80,_ZN5boost9unit_test13test_observer17test_unit_abortedERKNS0_9test_unitE
FN:82,_ZN5boost9unit_test13test_observer16assertion_resultENS0_16assertion_resultE
FN:97,_ZN5boost9unit_test13test_observer16exception_caughtERKNS_19execution_exceptionE
FN:101,_ZN5boost9unit_test13test_observer8priorityEv
FN:105,_ZN5boost9unit_test13test_observer16assertion_resultEb
FN:107,_ZN5boost9unit_test13test_observerD0Ev
FN:107,_ZN5boost9unit_test13test_observerD2Ev
FNDA:0,_ZN5boost9unit_test13test_observerC2Ev
FNDA:0,_ZN5boost9unit_test13test_observer10test_startEm
FNDA:2,_ZN5boost9unit_test13test_observer11test_finishEv
FNDA:0,_ZN5boost9unit_test13test_observer12test_abortedEv
FNDA:72,_ZN5boost9unit_test13test_observer15test_unit_startERKNS0_9test_unitE
FNDA:72,_ZN5boost9unit_test13test_observer16test_unit_finishERKNS0_9test_unitEm
FNDA:0,_ZN5boost9unit_test13test_observer17test_unit_skippedERKNS0_9test_unitENS0_13basic_cstringIKcEE
FNDA:0,_ZN5boost9unit_test13test_observer17test_unit_skippedERKNS0_9test_unitE
FNDA:0,_ZN5boost9unit_test13test_observer17test_unit_abortedERKNS0_9test_unitE
FNDA:60,_ZN5boost9unit_test13test_observer16assertion_resultENS0_16assertion_resultE
FNDA:0,_ZN5boost9unit_test13test_observer16exception_caughtERKNS_19execution_exceptionE
FNDA:0,_ZN5boost9unit_test13test_observer8priorityEv
FNDA:60,_ZN5boost9unit_test13test_observer16assertion_resultEb
FNDA:0,_ZN5boost9unit_test13test_observerD0Ev
FNDA:0,_ZN5boost9unit_test13test_observerD2Ev
FNF:15
FNH:5
DA:40,0
DA:47,0
DA:52,2
DA:61,0
DA:66,72
DA:71,72
DA:72,0
DA:73,0
DA:80,0
DA:82,60
DA:84,60
DA:85,60
DA:86,0
DA:87,0
DA:88,0
DA:90,60
DA:97,0
DA:101,0
DA:105,60
DA:107,0
LF:20
LH:8
end_of_record
SF:/usr/local/include/boost/test/tree/test_unit.hpp
FN:125,_ZN5boost9unit_test19test_unit_generatorC2Ev
FN:130,_ZN5boost9unit_test19test_unit_generatorD0Ev
FN:130,_ZN5boost9unit_test19test_unit_generatorD2Ev
FN:261,_ZN5boost9unit_test14make_test_caseERKNS_8functionIFvvEEENS0_13basic_cstringIKcEES8_m
FNDA:4,_ZN5boost9unit_test19test_unit_generatorC2Ev
FNDA:0,_ZN5boost9unit_test19test_unit_generatorD0Ev
FNDA:4,_ZN5boost9unit_test19test_unit_generatorD2Ev
FNDA:3,_ZN5boost9unit_test14make_test_caseERKNS_8functionIFvvEEENS0_13basic_cstringIKcEES8_m
FNF:4
FNH:3
DA:125,4
DA:130,4
DA:261,3
DA:263,3
LF:4
LH:4
end_of_record
SF:/usr/local/include/boost/test/unit_test.hpp
FN:61,main
FNDA:1,main
FNF:1
FNH:1
DA:61,1
DA:63,1
LF:2
LH:2
end_of_record
SF:/usr/local/include/boost/test/unit_test_log.hpp
FN:47,_ZN5boost9unit_test3log5beginC2ENS0_13basic_cstringIKcEEm
FN:112,_ZN5boost9unit_test15unit_test_log_tD0Ev
FN:112,_ZN5boost9unit_test15unit_test_log_tD2Ev
FN:224,_ZN5boost9unit_test15unit_test_log_tC2Ev
FNDA:1,_ZN5boost9unit_test3log5beginC2ENS0_13basic_cstringIKcEEm
FNDA:0,_ZN5boost9unit_test15unit_test_log_tD0Ev
FNDA:0,_ZN5boost9unit_test15unit_test_log_tD2Ev
FNDA:0,_ZN5boost9unit_test15unit_test_log_tC2Ev
FNF:4
FNH:1
DA:47,1
DA:48,1
DA:49,1
DA:50,1
DA:112,0
DA:224,0
DA:227,1
LF:7
LH:5
end_of_record
SF:/usr/local/include/boost/test/unit_test_suite.hpp
FN:375,_Z14init_unit_testv
FNDA:1,_Z14init_unit_testv
FNF:1
FNH:1
DA:375,1
DA:383,1
DA:388,1
LF:3
LH:3
end_of_record
SF:/usr/local/include/boost/test/utils/basic_cstring/basic_cstring.hpp
FN:79,_ZN5boost9unit_test13basic_cstringIKcEC2IiEEPS2_T_
FN:79,_ZN5boost9unit_test13basic_cstringIKcEC2ImEEPS2_T_
FN:172,_ZN5boost9unit_test13basic_cstringIKcE8null_strEv
FN:182,_ZN5boost9unit_test13basic_cstringIKcEC2Ev
FN:192,_ZN5boost9unit_test13basic_cstringIKcEC2ERKS3_
FN:202,_ZN5boost9unit_test13basic_cstringIKcEC2ERKNSt7__cxx1112basic_stringIcSt11char_traitsIcESaIcEEE
FN:212,_ZN5boost9unit_test13basic_cstringIKcEC2EPS2_
FN:253,_ZNK5boost9unit_test13basic_cstringIKcE4sizeEv
FN:262,_ZNK5boost9unit_test13basic_cstringIKcE8is_emptyEv
FN:280,_ZN5boost9unit_test13basic_cstringIKcE5clearEv
FN:312,_ZN5boost9unit_test13basic_cstringIKcE9trim_leftEPS2_
FN:325,_ZN5boost9unit_test13basic_cstringIKcE9trim_leftES3_
FN:356,_ZN5boost9unit_test13basic_cstringIKcE10trim_rightEPS2_
FN:369,_ZN5boost9unit_test13basic_cstringIKcE10trim_rightES3_
FN:388,_ZN5boost9unit_test13basic_cstringIKcE4trimES3_
FN:400,_ZN5boost9unit_test13basic_cstringIKcEaSERKS3_
FN:474,_ZN5boost9unit_test13basic_cstringIKcE5beginEv
FN:483,_ZNK5boost9unit_test13basic_cstringIKcE5beginEv
FN:492,_ZN5boost9unit_test13basic_cstringIKcE3endEv
FN:501,_ZNK5boost9unit_test13basic_cstringIKcE3endEv
FN:567,_ZN5boost9unit_test13basic_cstringIKcE15default_trim_exEv
FN:712,_ZN5boost9unit_test9assign_opIcKcEEvRNSt7__cxx1112basic_stringIT_St11char_traitsIS5_ESaIS5_EEENS0_13basic_cstringIT0_EEi
FNDA:0,_ZN5boost9unit_test13basic_cstringIKcEC2IiEEPS2_T_
FNDA:179,_ZN5boost9unit_test13basic_cstringIKcEC2ImEEPS2_T_
FNDA:33,_ZN5boost9unit_test13basic_cstringIKcE8null_strEv
FNDA:33,_ZN5boost9unit_test13basic_cstringIKcEC2Ev
FNDA:62,_ZN5boost9unit_test13basic_cstringIKcEC2ERKS3_
FNDA:126,_ZN5boost9unit_test13basic_cstringIKcEC2ERKNSt7__cxx1112basic_stringIcSt11char_traitsIcESaIcEEE
FNDA:25,_ZN5boost9unit_test13basic_cstringIKcEC2EPS2_
FNDA:3,_ZNK5boost9unit_test13basic_cstringIKcE4sizeEv
FNDA:2,_ZNK5boost9unit_test13basic_cstringIKcE8is_emptyEv
FNDA:0,_ZN5boost9unit_test13basic_cstringIKcE5clearEv
FNDA:1,_ZN5boost9unit_test13basic_cstringIKcE9trim_leftEPS2_
FNDA:1,_ZN5boost9unit_test13basic_cstringIKcE9trim_leftES3_
FNDA:1,_ZN5boost9unit_test13basic_cstringIKcE10trim_rightEPS2_
FNDA:1,_ZN5boost9unit_test13basic_cstringIKcE10trim_rightES3_
FNDA:1,_ZN5boost9unit_test13basic_cstringIKcE4trimES3_
FNDA:0,_ZN5boost9unit_test13basic_cstringIKcEaSERKS3_
FNDA:5,_ZN5boost9unit_test13basic_cstringIKcE5beginEv
FNDA:0,_ZNK5boost9unit_test13basic_cstringIKcE5beginEv
FNDA:2,_ZN5boost9unit_test13basic_cstringIKcE3endEv
FNDA:0,_ZNK5boost9unit_test13basic_cstringIKcE3endEv
FNDA:0,_ZN5boost9unit_test13basic_cstringIKcE15default_trim_exEv
FNDA:1,_ZN5boost9unit_test9assign_opIcKcEEvRNSt7__cxx1112basic_stringIT_St11char_traitsIS5_ESaIS5_EEENS0_13basic_cstringIT0_EEi
FNF:22
FNH:16
DA:79,179
DA:172,33
DA:175,33
DA:182,33
DA:183,33
DA:184,33
DA:186,33
DA:192,62
DA:193,62
DA:194,62
DA:196,62
DA:202,126
DA:204,126
DA:206,126
DA:212,25
DA:213,25
DA:214,25
DA:216,25
DA:253,3
DA:255,3
DA:262,2
DA:264,2
DA:280,0
DA:282,0
DA:283,0
DA:312,1
DA:314,1
DA:315,1
DA:316,0
DA:318,1
DA:325,1
DA:327,1
DA:328,0
DA:331,1
DA:332,1
DA:333,1
DA:336,1
DA:356,1
DA:358,1
DA:359,1
DA:360,0
DA:362,1
DA:369,1
DA:371,1
DA:372,0
DA:376,1
DA:377,1
DA:378,1
DA:381,1
DA:388,1
DA:390,1
DA:391,1
DA:393,1
DA:400,0
DA:402,0
DA:403,0
DA:405,0
DA:474,5
DA:476,5
DA:483,0
DA:485,0
DA:492,2
DA:494,2
DA:501,0
DA:503,0
DA:567,0
DA:571,0
DA:712,1
DA:714,1
DA:715,1
LF:70
LH:53
end_of_record
SF:/usr/local/include/boost/test/utils/basic_cstring/bcs_char_traits.hpp
FN:60,_ZN5boost9unit_test9ut_detail20bcs_char_traits_implIKcE2eqEcc
FN:82,_ZN5boost9unit_test9ut_detail20bcs_char_traits_implIKcE6lengthEPS3_
FN:93,_ZN5boost9unit_test9ut_detail20bcs_char_traits_implIKcE4findEPS3_mc
FNDA:1048,_ZN5boost9unit_test9ut_detail20bcs_char_traits_implIKcE2eqEcc
FNDA:25,_ZN5boost9unit_test9ut_detail20bcs_char_traits_implIKcE6lengthEPS3_
FNDA:2,_ZN5boost9unit_test9ut_detail20bcs_char_traits_implIKcE4findEPS3_mc
FNF:3
FNH:3
DA:60,1048
DA:62,1048
DA:82,25
DA:84,25
DA:86,25
DA:87,2067
DA:88,1021
DA:90,25
DA:93,4
DA:95,6
DA:96,2
DA:97,0
DA:99,2
DA:100,2
DA:102,2
LF:15
LH:14
end_of_record
SF:/usr/local/include/boost/test/utils/basic_cstring/io.hpp
FN:51,_ZN5boost9unit_testlsIcSt11char_traitsIcEKcEERSt13basic_ostreamIT_T0_ES9_RKNS0_13basic_cstringIT1_EE
FNDA:0,_ZN5boost9unit_testlsIcSt11char_traitsIcEKcEERSt13basic_ostreamIT_T0_ES9_RKNS0_13basic_cstringIT1_EE
FNF:1
FNH:0
DA:51,0
DA:53,0
DA:54,0
DA:55,0
DA:57,0
LF:5
LH:0
end_of_record
SF:/usr/local/include/boost/test/utils/class_properties.hpp
FN:54,_ZN5boost9unit_test14class_propertyIbEC2Eb
FN:131,_ZN5boost9unit_test17readonly_propertyIbEC2Eb
FNDA:30,_ZN5boost9unit_test14class_propertyIbEC2Eb
FNDA:30,_ZN5boost9unit_test17readonly_propertyIbEC2Eb
FNF:2
FNH:2
DA:54,30
DA:55,30
DA:131,30
LF:3
LH:3
end_of_record
SF:/usr/local/include/boost/test/utils/lazy_ostream.hpp
FN:33,_ZN5boost9unit_test12lazy_ostreamD0Ev
FN:33,_ZN5boost9unit_test12lazy_ostreamD2Ev
FN:35,_ZN5boost9unit_test12lazy_ostream8instanceEv
FN:43,_ZNK5boost9unit_test12lazy_ostreamclERSo
FN:45,_ZN5boost9unit_test12lazy_ostreamC2Eb
FN:55,_ZN5boost9unit_test17lazy_ostream_implINS1_INS1_INS0_12lazy_ostreamEA1_cRA1_KcEEA10_cRA10_S4_EEA4_cRA4_S4_ED0Ev
FN:55,_ZN5boost9unit_test17lazy_ostream_implINS1_INS1_INS1_INS1_INS1_INS1_INS1_INS0_12lazy_ostreamEA1_cRA1_KcEEA10_cRA10_S4_EEA4_cRA4_S4_EENS_10test_tools9tt_detail14print_helper_tIiEERKSJ_EEA3_cRA3_S4_EEA8_cRA8_S4_EESC_SE_EESJ_SL_ED0Ev
FN:55,_ZN5boost9unit_test17lazy_ostream_implINS1_INS1_INS1_INS1_INS1_INS0_12lazy_ostreamEA1_cRA1_KcEEA10_cRA10_S4_EEA4_cRA4_S4_EENS_10test_tools9tt_detail14print_helper_tIiEERKSJ_EEA3_cRA3_S4_EEA8_cRA8_S4_ED0Ev
FN:55,_ZN5boost9unit_test17lazy_ostream_implINS1_INS1_INS1_INS1_INS1_INS1_INS0_12lazy_ostreamEA1_cRA1_KcEEA3_cRA3_S4_EEA4_cRA4_S4_EENS_10test_tools9tt_detail14print_helper_tIiEERKSJ_EES8_SA_EES8_SA_EESC_SE_ED0Ev
FN:55,_ZN5boost9unit_test17lazy_ostream_implINS1_INS1_INS1_INS0_12lazy_ostreamEA1_cRA1_KcEEA7_cRA7_S4_EEA4_cRA4_S4_EENS_10test_tools9tt_detail14print_helper_tIiEERKSJ_ED2Ev
FN:55,_ZN5boost9unit_test17lazy_ostream_implINS1_INS1_INS1_INS1_INS0_12lazy_ostreamEA1_cRA1_KcEEA7_cRA7_S4_EEA4_cRA4_S4_EENS_10test_tools9tt_detail14print_helper_tIiEERKSJ_EEA3_cRA3_S4_ED2Ev
FN:55,_ZN5boost9unit_test17lazy_ostream_implINS0_12lazy_ostreamENS_10test_tools9tt_detail14print_helper_tIiEERKS6_ED2Ev
FN:55,_ZN5boost9unit_test17lazy_ostream_implINS1_INS1_INS1_INS1_INS1_INS1_INS0_12lazy_ostreamEA1_cRA1_KcEEA10_cRA10_S4_EEA4_cRA4_S4_EENS_10test_tools9tt_detail14print_helper_tIiEERKSJ_EEA3_cRA3_S4_EEA8_cRA8_S4_EESC_SE_ED2Ev
FN:55,_ZN5boost9unit_test17lazy_ostream_implINS0_12lazy_ostreamEA66_cRA66_KcED0Ev
FN:55,_ZN5boost9unit_test17lazy_ostream_implINS1_INS1_INS1_INS1_INS0_12lazy_ostreamEA1_cRA1_KcEEA10_cRA10_S4_EEA4_cRA4_S4_EENS_10test_tools9tt_detail14print_helper_tIiEERKSJ_EEA3_cRA3_S4_ED0Ev
FN:55,_ZN5boost9unit_test17lazy_ostream_implINS1_INS0_12lazy_ostreamEA1_cRA1_KcEEA10_cRA10_S4_ED2Ev
FN:55,_ZN5boost9unit_test17lazy_ostream_implINS1_INS1_INS1_INS1_INS0_12lazy_ostreamEA1_cRA1_KcEEA10_cRA10_S4_EEA4_cRA4_S4_EENS_10test_tools9tt_detail14print_helper_tIiEERKSJ_EEA3_cRA3_S4_ED2Ev
FN:55,_ZN5boost9unit_test17lazy_ostream_implINS0_12lazy_ostreamEA24_cRA24_KcED2Ev
FN:55,_ZN5boost9unit_test17lazy_ostream_implINS0_12lazy_ostreamEA1_cRA1_KcED0Ev
FN:55,_ZN5boost9unit_test17lazy_ostream_implINS1_INS1_INS1_INS1_INS0_12lazy_ostreamEA1_cRA1_KcEEA3_cRA3_S4_EEA4_cRA4_S4_EENS_10test_tools9tt_detail14print_helper_tIiEERKSJ_EES8_SA_ED2Ev
FN:55,_ZN5boost9unit_test17lazy_ostream_implINS1_INS1_INS1_INS1_INS1_INS1_INS1_INS1_INS0_12lazy_ostreamEA1_cRA1_KcEEA7_cRA7_S4_EEA4_cRA4_S4_EENS_10test_tools9tt_detail14print_helper_tIiEERKSJ_EEA3_cRA3_S4_EEA15_cRA15_S4_EESC_SE_EESJ_SL_EESN_SP_ED2Ev
FN:55,_ZN5boost9unit_test17lazy_ostream_implINS1_INS1_INS1_INS0_12lazy_ostreamEA1_cRA1_KcEEA10_cRA10_S4_EEA4_cRA4_S4_EENS_10test_tools9tt_detail14print_helper_tIiEERKSJ_ED2Ev
FN:55,_ZN5boost9unit_test17lazy_ostream_implINS1_INS1_INS1_INS1_INS0_12lazy_ostreamEA1_cRA1_KcEEA7_cRA7_S4_EEA4_cRA4_S4_EENS_10test_tools9tt_detail14print_helper_tIiEERKSJ_EEA3_cRA3_S4_ED0Ev
FN:55,_ZN5boost9unit_test17lazy_ostream_implINS1_INS1_INS1_INS1_INS1_INS1_INS1_INS1_INS0_12lazy_ostreamEA1_cRA1_KcEEA7_cRA7_S4_EEA4_cRA4_S4_EENS_10test_tools9tt_detail14print_helper_tIiEERKSJ_EEA3_cRA3_S4_EEA15_cRA15_S4_EESC_SE_EESJ_SL_EESN_SP_ED0Ev
FN:55,_ZN5boost9unit_test17lazy_ostream_implINS0_12lazy_ostreamEA69_cRA69_KcED0Ev
FN:55,_ZN5boost9unit_test17lazy_ostream_implINS1_INS1_INS1_INS1_INS1_INS1_INS1_INS1_INS0_12lazy_ostreamEA1_cRA1_KcEEA3_cRA3_S4_EEA4_cRA4_S4_EENS_10test_tools9tt_detail14print_helper_tIiEERKSJ_EES8_SA_EES8_SA_EESC_SE_EESJ_SL_EES8_SA_ED2Ev
FN:55,_ZN5boost9unit_test17lazy_ostream_implINS1_INS1_INS1_INS1_INS1_INS1_INS1_INS0_12lazy_ostreamEA1_cRA1_KcEEA10_cRA10_S4_EEA4_cRA4_S4_EENS_10test_tools9tt_detail14print_helper_tIiEERKSJ_EEA3_cRA3_S4_EEA8_cRA8_S4_EESC_SE_EESJ_SL_ED2Ev
FN:55,_ZN5boost9unit_test17lazy_ostream_implINS1_INS1_INS1_INS0_12lazy_ostreamEA1_cRA1_KcEEA3_cRA3_S4_EEA4_cRA4_S4_EENS_10test_tools9tt_detail14print_helper_tIiEERKSJ_ED2Ev
FN:55,_ZN5boost9unit_test17lazy_ostream_implINS1_INS1_INS1_INS1_INS1_INS1_INS1_INS0_12lazy_ostreamEA1_cRA1_KcEEA7_cRA7_S4_EEA4_cRA4_S4_EENS_10test_tools9tt_detail14print_helper_tIiEERKSJ_EEA3_cRA3_S4_EEA15_cRA15_S4_EESC_SE_EESJ_SL_ED0Ev
FN:55,_ZN5boost9unit_test17lazy_ostream_implINS0_12lazy_ostreamEA1_cRA1_KcED2Ev
FN:55,_ZN5boost9unit_test17lazy_ostream_implINS1_INS1_INS1_INS1_INS1_INS1_INS1_INS0_12lazy_ostreamEA1_cRA1_KcEEA3_cRA3_S4_EEA4_cRA4_S4_EENS_10test_tools9tt_detail14print_helper_tIiEERKSJ_EES8_SA_EES8_SA_EESC_SE_EESJ_SL_ED0Ev
FN:55,_ZN5boost9unit_test17lazy_ostream_implINS1_INS0_12lazy_ostreamEA1_cRA1_KcEEA7_cRA7_S4_ED0Ev
FN:55,_ZN5boost9unit_test17lazy_ostream_implINS1_INS1_INS0_12lazy_ostreamEA1_cRA1_KcEEA3_cRA3_S4_EEA4_cRA4_S4_ED2Ev
FN:55,_ZN5boost9unit_test17lazy_ostream_implINS1_INS1_INS1_INS1_INS1_INS1_INS0_12lazy_ostreamEA1_cRA1_KcEEA10_cRA10_S4_EEA4_cRA4_S4_EENS_10test_tools9tt_detail14print_helper_tIiEERKSJ_EEA3_cRA3_S4_EEA8_cRA8_S4_EESC_SE_ED0Ev
FN:55,_ZN5boost9unit_test17lazy_ostream_implINS1_INS0_12lazy_ostreamEA1_cRA1_KcEEA7_cRA7_S4_ED2Ev
FN:55,_ZN5boost9unit_test17lazy_ostream_implINS1_INS0_12lazy_ostreamEA1_cRA1_KcEEA10_cRA10_S4_ED0Ev
FN:55,_ZN5boost9unit_test17lazy_ostream_implINS1_INS1_INS1_INS1_INS1_INS1_INS1_INS0_12lazy_ostreamEA1_cRA1_KcEEA7_cRA7_S4_EEA4_cRA4_S4_EENS_10test_tools9tt_detail14print_helper_tIiEERKSJ_EEA3_cRA3_S4_EEA15_cRA15_S4_EESC_SE_EESJ_SL_ED2Ev
FN:55,_ZN5boost9unit_test17lazy_ostream_implINS1_INS1_INS1_INS0_12lazy_ostreamEA1_cRA1_KcEEA3_cRA3_S4_EEA4_cRA4_S4_EENS_10test_tools9tt_detail14print_helper_tIiEERKSJ_ED0Ev
FN:55,_ZN5boost9unit_test17lazy_ostream_implINS1_INS1_INS1_INS1_INS1_INS1_INS0_12lazy_ostreamEA1_cRA1_KcEEA7_cRA7_S4_EEA4_cRA4_S4_EENS_10test_tools9tt_detail14print_helper_tIiEERKSJ_EEA3_cRA3_S4_EEA15_cRA15_S4_EESC_SE_ED2Ev
FN:55,_ZN5boost9unit_test17lazy_ostream_implINS1_INS1_INS1_INS1_INS1_INS0_12lazy_ostreamEA1_cRA1_KcEEA10_cRA10_S4_EEA4_cRA4_S4_EENS_10test_tools9tt_detail14print_helper_tIiEERKSJ_EEA3_cRA3_S4_EEA8_cRA8_S4_ED2Ev
FN:55,_ZN5boost9unit_test17lazy_ostream_implINS1_INS1_INS1_INS0_12lazy_ostreamEA1_cRA1_KcEEA10_cRA10_S4_EEA4_cRA4_S4_EENS_10test_tools9tt_detail14print_helper_tIiEERKSJ_ED0Ev
FN:55,_ZN5boost9unit_test17lazy_ostream_implINS1_INS1_INS1_INS1_INS1_INS1_INS1_INS1_INS0_12lazy_ostreamEA1_cRA1_KcEEA10_cRA10_S4_EEA4_cRA4_S4_EENS_10test_tools9tt_detail14print_helper_tIiEERKSJ_EEA3_cRA3_S4_EEA8_cRA8_S4_EESC_SE_EESJ_SL_EESN_SP_ED2Ev
FN:55,_ZN5boost9unit_test17lazy_ostream_implINS1_INS1_INS1_INS1_INS0_12lazy_ostreamEA1_cRA1_KcEEA3_cRA3_S4_EEA4_cRA4_S4_EENS_10test_tools9tt_detail14print_helper_tIiEERKSJ_EES8_SA_ED0Ev
FN:55,_ZN5boost9unit_test17lazy_ostream_implINS1_INS1_INS1_INS1_INS1_INS0_12lazy_ostreamEA1_cRA1_KcEEA7_cRA7_S4_EEA4_cRA4_S4_EENS_10test_tools9tt_detail14print_helper_tIiEERKSJ_EEA3_cRA3_S4_EEA15_cRA15_S4_ED2Ev
FN:55,_ZN5boost9unit_test17lazy_ostream_implINS1_INS1_INS0_12lazy_ostreamEA1_cRA1_KcEEA7_cRA7_S4_EEA4_cRA4_S4_ED0Ev
FN:55,_ZN5boost9unit_test17lazy_ostream_implINS1_INS1_INS0_12lazy_ostreamEA1_cRA1_KcEEA7_cRA7_S4_EEA4_cRA4_S4_ED2Ev
FN:55,_ZN5boost9unit_test17lazy_ostream_implINS1_INS1_INS1_INS1_INS1_INS1_INS0_12lazy_ostreamEA1_cRA1_KcEEA3_cRA3_S4_EEA4_cRA4_S4_EENS_10test_tools9tt_detail14print_helper_tIiEERKSJ_EES8_SA_EES8_SA_EESC_SE_ED2Ev
FN:55,_ZN5boost9unit_test17lazy_ostream_implINS0_12lazy_ostreamENS0_13basic_cstringIKcEERKS5_ED0Ev
FN:55,_ZN5boost9unit_test17lazy_ostream_implINS0_12lazy_ostreamENS0_13basic_cstringIKcEERKS5_ED2Ev
FN:55,_ZN5boost9unit_test17lazy_ostream_implINS1_INS1_INS1_INS1_INS1_INS1_INS1_INS1_INS0_12lazy_ostreamEA1_cRA1_KcEEA3_cRA3_S4_EEA4_cRA4_S4_EENS_10test_tools9tt_detail14print_helper_tIiEERKSJ_EES8_SA_EES8_SA_EESC_SE_EESJ_SL_EES8_SA_ED0Ev
FN:55,_ZN5boost9unit_test17lazy_ostream_implINS0_12lazy_ostreamEA69_cRA69_KcED2Ev
FN:55,_ZN5boost9unit_test17lazy_ostream_implINS1_INS0_12lazy_ostreamEA1_cRA1_KcEEA3_cRA3_S4_ED0Ev
FN:55,_ZN5boost9unit_test17lazy_ostream_implINS1_INS1_INS1_INS1_INS1_INS0_12lazy_ostreamEA1_cRA1_KcEEA3_cRA3_S4_EEA4_cRA4_S4_EENS_10test_tools9tt_detail14print_helper_tIiEERKSJ_EES8_SA_EES8_SA_ED2Ev
FN:55,_ZN5boost9unit_test17lazy_ostream_implINS1_INS0_12lazy_ostreamEA1_cRA1_KcEEA3_cRA3_S4_ED2Ev
FN:55,_ZN5boost9unit_test17lazy_ostream_implINS0_12lazy_ostreamENS_10test_tools9tt_detail14print_helper_tIiEERKS6_ED0Ev
FN:55,_ZN5boost9unit_test17lazy_ostream_implINS0_12lazy_ostreamEA66_cRA66_KcED2Ev
FN:55,_ZN5boost9unit_test17lazy_ostream_implINS1_INS1_INS0_12lazy_ostreamEA1_cRA1_KcEEA10_cRA10_S4_EEA4_cRA4_S4_ED2Ev
FN:55,_ZN5boost9unit_test17lazy_ostream_implINS1_INS1_INS1_INS1_INS1_INS1_INS1_INS0_12lazy_ostreamEA1_cRA1_KcEEA3_cRA3_S4_EEA4_cRA4_S4_EENS_10test_tools9tt_detail14print_helper_tIiEERKSJ_EES8_SA_EES8_SA_EESC_SE_EESJ_SL_ED2Ev
FN:55,_ZN5boost9unit_test17lazy_ostream_implINS1_INS1_INS1_INS1_INS1_INS1_INS0_12lazy_ostreamEA1_cRA1_KcEEA7_cRA7_S4_EEA4_cRA4_S4_EENS_10test_tools9tt_detail14print_helper_tIiEERKSJ_EEA3_cRA3_S4_EEA15_cRA15_S4_EESC_SE_ED0Ev
FN:55,_ZN5boost9unit_test17lazy_ostream_implINS0_12lazy_ostreamEA24_cRA24_KcED0Ev
FN:55,_ZN5boost9unit_test17lazy_ostream_implINS1_INS1_INS1_INS1_INS1_INS1_INS1_INS1_INS0_12lazy_ostreamEA1_cRA1_KcEEA10_cRA10_S4_EEA4_cRA4_S4_EENS_10test_tools9tt_detail14print_helper_tIiEERKSJ_EEA3_cRA3_S4_EEA8_cRA8_S4_EESC_SE_EESJ_SL_EESN_SP_ED0Ev
FN:55,_ZN5boost9unit_test17lazy_ostream_implINS1_INS1_INS1_INS0_12lazy_ostreamEA1_cRA1_KcEEA7_cRA7_S4_EEA4_cRA4_S4_EENS_10test_tools9tt_detail14print_helper_tIiEERKSJ_ED0Ev
FN:55,_ZN5boost9unit_test17lazy_ostream_implINS1_INS1_INS0_12lazy_ostreamEA1_cRA1_KcEEA3_cRA3_S4_EEA4_cRA4_S4_ED0Ev
FN:55,_ZN5boost9unit_test17lazy_ostream_implINS1_INS1_INS1_INS1_INS1_INS0_12lazy_ostreamEA1_cRA1_KcEEA3_cRA3_S4_EEA4_cRA4_S4_EENS_10test_tools9tt_detail14print_helper_tIiEERKSJ_EES8_SA_EES8_SA_ED0Ev
FN:55,_ZN5boost9unit_test17lazy_ostream_implINS1_INS1_INS1_INS1_INS1_INS0_12lazy_ostreamEA1_cRA1_KcEEA7_cRA7_S4_EEA4_cRA4_S4_EENS_10test_tools9tt_detail14print_helper_tIiEERKSJ_EEA3_cRA3_S4_EEA15_cRA15_S4_ED0Ev
FN:57,_ZN5boost9unit_test17lazy_ostream_implINS1_INS1_INS0_12lazy_ostreamEA1_cRA1_KcEEA10_cRA10_S4_EEA4_cRA4_S4_EC2ERKSB_SE_
FN:57,_ZN5boost9unit_test17lazy_ostream_implINS1_INS1_INS1_INS0_12lazy_ostreamEA1_cRA1_KcEEA3_cRA3_S4_EEA4_cRA4_S4_EENS_10test_tools9tt_detail14print_helper_tIiEERKSJ_EC2ERKSF_SL_
FN:57,_ZN5boost9unit_test17lazy_ostream_implINS1_INS1_INS1_INS1_INS1_INS1_INS1_INS0_12lazy_ostreamEA1_cRA1_KcEEA3_cRA3_S4_EEA4_cRA4_S4_EENS_10test_tools9tt_detail14print_helper_tIiEERKSJ_EES8_SA_EES8_SA_EESC_SE_EESJ_SL_EC2ERKSP_SL_
FN:57,_ZN5boost9unit_test17lazy_ostream_implINS1_INS0_12lazy_ostreamEA1_cRA1_KcEEA10_cRA10_S4_EC2ERKS7_SA_
FN:57,_ZN5boost9unit_test17lazy_ostream_implINS1_INS1_INS1_INS1_INS1_INS1_INS0_12lazy_ostreamEA1_cRA1_KcEEA10_cRA10_S4_EEA4_cRA4_S4_EENS_10test_tools9tt_detail14print_helper_tIiEERKSJ_EEA3_cRA3_S4_EEA8_cRA8_S4_EESC_SE_EC2ERKSU_SE_
FN:57,_ZN5boost9unit_test17lazy_ostream_implINS1_INS1_INS1_INS1_INS0_12lazy_ostreamEA1_cRA1_KcEEA3_cRA3_S4_EEA4_cRA4_S4_EENS_10test_tools9tt_detail14print_helper_tIiEERKSJ_EES8_SA_EC2ERKSM_SA_
FN:57,_ZN5boost9unit_test17lazy_ostream_implINS1_INS1_INS1_INS1_INS1_INS1_INS0_12lazy_ostreamEA1_cRA1_KcEEA3_cRA3_S4_EEA4_cRA4_S4_EENS_10test_tools9tt_detail14print_helper_tIiEERKSJ_EES8_SA_EES8_SA_EESC_SE_EC2ERKSO_SE_
FN:57,_ZN5boost9unit_test17lazy_ostream_implINS1_INS0_12lazy_ostreamEA1_cRA1_KcEEA3_cRA3_S4_EC2ERKS7_SA_
FN:57,_ZN5boost9unit_test17lazy_ostream_implINS1_INS1_INS1_INS1_INS1_INS1_INS1_INS0_12lazy_ostreamEA1_cRA1_KcEEA10_cRA10_S4_EEA4_cRA4_S4_EENS_10test_tools9tt_detail14print_helper_tIiEERKSJ_EEA3_cRA3_S4_EEA8_cRA8_S4_EESC_SE_EESJ_SL_EC2ERKSV_SL_
FN:57,_ZN5boost9unit_test17lazy_ostream_implINS1_INS1_INS1_INS1_INS1_INS1_INS1_INS0_12lazy_ostreamEA1_cRA1_KcEEA7_cRA7_S4_EEA4_cRA4_S4_EENS_10test_tools9tt_detail14print_helper_tIiEERKSJ_EEA3_cRA3_S4_EEA15_cRA15_S4_EESC_SE_EESJ_SL_EC2ERKSV_SL_
FN:57,_ZN5boost9unit_test17lazy_ostream_implINS0_12lazy_ostreamEA1_cRA1_KcEC2ERKS2_S6_
FN:57,_ZN5boost9unit_test17lazy_ostream_implINS1_INS1_INS1_INS1_INS0_12lazy_ostreamEA1_cRA1_KcEEA7_cRA7_S4_EEA4_cRA4_S4_EENS_10test_tools9tt_detail14print_helper_tIiEERKSJ_EEA3_cRA3_S4_EC2ERKSM_SP_
FN:57,_ZN5boost9unit_test17lazy_ostream_implINS1_INS1_INS1_INS0_12lazy_ostreamEA1_cRA1_KcEEA10_cRA10_S4_EEA4_cRA4_S4_EENS_10test_tools9tt_detail14print_helper_tIiEERKSJ_EC2ERKSF_SL_
FN:57,_ZN5boost9unit_test17lazy_ostream_implINS1_INS1_INS1_INS1_INS0_12lazy_ostreamEA1_cRA1_KcEEA10_cRA10_S4_EEA4_cRA4_S4_EENS_10test_tools9tt_detail14print_helper_tIiEERKSJ_EEA3_cRA3_S4_EC2ERKSM_SP_
FN:57,_ZN5boost9unit_test17lazy_ostream_implINS1_INS1_INS1_INS1_INS1_INS1_INS1_INS1_INS0_12lazy_ostreamEA1_cRA1_KcEEA7_cRA7_S4_EEA4_cRA4_S4_EENS_10test_tools9tt_detail14print_helper_tIiEERKSJ_EEA3_cRA3_S4_EEA15_cRA15_S4_EESC_SE_EESJ_SL_EESN_SP_EC2ERKSW_SP_
FN:57,_ZN5boost9unit_test17lazy_ostream_implINS0_12lazy_ostreamEA24_cRA24_KcEC2ERKS2_S6_
FN:57,_ZN5boost9unit_test17lazy_ostream_implINS0_12lazy_ostreamEA69_cRA69_KcEC2ERKS2_S6_
FN:57,_ZN5boost9unit_test17lazy_ostream_implINS0_12lazy_ostreamENS_10test_tools9tt_detail14print_helper_tIiEERKS6_EC2ERKS2_S8_
FN:57,_ZN5boost9unit_test17lazy_ostream_implINS1_INS1_INS1_INS1_INS1_INS1_INS0_12lazy_ostreamEA1_cRA1_KcEEA7_cRA7_S4_EEA4_cRA4_S4_EENS_10test_tools9tt_detail14print_helper_tIiEERKSJ_EEA3_cRA3_S4_EEA15_cRA15_S4_EESC_SE_EC2ERKSU_SE_
FN:57,_ZN5boost9unit_test17lazy_ostream_implINS1_INS1_INS1_INS1_INS1_INS0_12lazy_ostreamEA1_cRA1_KcEEA10_cRA10_S4_EEA4_cRA4_S4_EENS_10test_tools9tt_detail14print_helper_tIiEERKSJ_EEA3_cRA3_S4_EEA8_cRA8_S4_EC2ERKSQ_ST_
FN:57,_ZN5boost9unit_test17lazy_ostream_implINS1_INS1_INS1_INS1_INS1_INS0_12lazy_ostreamEA1_cRA1_KcEEA3_cRA3_S4_EEA4_cRA4_S4_EENS_10test_tools9tt_detail14print_helper_tIiEERKSJ_EES8_SA_EES8_SA_EC2ERKSN_SA_
FN:57,_ZN5boost9unit_test17lazy_ostream_implINS1_INS1_INS0_12lazy_ostreamEA1_cRA1_KcEEA7_cRA7_S4_EEA4_cRA4_S4_EC2ERKSB_SE_
FN:57,_ZN5boost9unit_test17lazy_ostream_implINS1_INS0_12lazy_ostreamEA1_cRA1_KcEEA7_cRA7_S4_EC2ERKS7_SA_
FN:57,_ZN5boost9unit_test17lazy_ostream_implINS1_INS1_INS1_INS1_INS1_INS0_12lazy_ostreamEA1_cRA1_KcEEA7_cRA7_S4_EEA4_cRA4_S4_EENS_10test_tools9tt_detail14print_helper_tIiEERKSJ_EEA3_cRA3_S4_EEA15_cRA15_S4_EC2ERKSQ_ST_
FN:57,_ZN5boost9unit_test17lazy_ostream_implINS1_INS1_INS1_INS1_INS1_INS1_INS1_INS1_INS0_12lazy_ostreamEA1_cRA1_KcEEA10_cRA10_S4_EEA4_cRA4_S4_EENS_10test_tools9tt_detail14print_helper_tIiEERKSJ_EEA3_cRA3_S4_EEA8_cRA8_S4_EESC_SE_EESJ_SL_EESN_SP_EC2ERKSW_SP_
FN:57,_ZN5boost9unit_test17lazy_ostream_implINS1_INS1_INS1_INS0_12lazy_ostreamEA1_cRA1_KcEEA7_cRA7_S4_EEA4_cRA4_S4_EENS_10test_tools9tt_detail14print_helper_tIiEERKSJ_EC2ERKSF_SL_
FN:57,_ZN5boost9unit_test17lazy_ostream_implINS0_12lazy_ostreamENS0_13basic_cstringIKcEERKS5_EC2ERKS2_S7_
FN:57,_ZN5boost9unit_test17lazy_ostream_implINS0_12lazy_ostreamEA66_cRA66_KcEC2ERKS2_S6_
FN:57,_ZN5boost9unit_test17lazy_ostream_implINS1_INS1_INS1_INS1_INS1_INS1_INS1_INS1_INS0_12lazy_ostreamEA1_cRA1_KcEEA3_cRA3_S4_EEA4_cRA4_S4_EENS_10test_tools9tt_detail14print_helper_tIiEERKSJ_EES8_SA_EES8_SA_EESC_SE_EESJ_SL_EES8_SA_EC2ERKSQ_SA_
FN:57,_ZN5boost9unit_test17lazy_ostream_implINS1_INS1_INS0_12lazy_ostreamEA1_cRA1_KcEEA3_cRA3_S4_EEA4_cRA4_S4_EC2ERKSB_SE_
FN:64,_ZNK5boost9unit_test17lazy_ostream_implINS0_12lazy_ostreamENS_10test_tools9tt_detail14print_helper_tIiEERKS6_EclERSo
FN:64,_ZNK5boost9unit_test17lazy_ostream_implINS1_INS1_INS1_INS0_12lazy_ostreamEA1_cRA1_KcEEA3_cRA3_S4_EEA4_cRA4_S4_EENS_10test_tools9tt_detail14print_helper_tIiEERKSJ_EclERSo
FN:64,_ZNK5boost9unit_test17lazy_ostream_implINS1_INS1_INS1_INS0_12lazy_ostreamEA1_cRA1_KcEEA7_cRA7_S4_EEA4_cRA4_S4_EENS_10test_tools9tt_detail14print_helper_tIiEERKSJ_EclERSo
FN:64,_ZNK5boost9unit_test17lazy_ostream_implINS1_INS1_INS1_INS1_INS0_12lazy_ostreamEA1_cRA1_KcEEA3_cRA3_S4_EEA4_cRA4_S4_EENS_10test_tools9tt_detail14print_helper_tIiEERKSJ_EES8_SA_EclERSo
FN:64,_ZNK5boost9unit_test17lazy_ostream_implINS1_INS1_INS1_INS1_INS1_INS0_12lazy_ostreamEA1_cRA1_KcEEA10_cRA10_S4_EEA4_cRA4_S4_EENS_10test_tools9tt_detail14print_helper_tIiEERKSJ_EEA3_cRA3_S4_EEA8_cRA8_S4_EclERSo
FN:64,_ZNK5boost9unit_test17lazy_ostream_implINS1_INS1_INS1_INS0_12lazy_ostreamEA1_cRA1_KcEEA10_cRA10_S4_EEA4_cRA4_S4_EENS_10test_tools9tt_detail14print_helper_tIiEERKSJ_EclERSo
FN:64,_ZNK5boost9unit_test17lazy_ostream_implINS1_INS0_12lazy_ostreamEA1_cRA1_KcEEA7_cRA7_S4_EclERSo
FN:64,_ZNK5boost9unit_test17lazy_ostream_implINS1_INS1_INS0_12lazy_ostreamEA1_cRA1_KcEEA7_cRA7_S4_EEA4_cRA4_S4_EclERSo
FN:64,_ZNK5boost9unit_test17lazy_ostream_implINS0_12lazy_ostreamEA69_cRA69_KcEclERSo
FN:64,_ZNK5boost9unit_test17lazy_ostream_implINS1_INS1_INS1_INS1_INS1_INS1_INS0_12lazy_ostreamEA1_cRA1_KcEEA7_cRA7_S4_EEA4_cRA4_S4_EENS_10test_tools9tt_detail14print_helper_tIiEERKSJ_EEA3_cRA3_S4_EEA15_cRA15_S4_EESC_SE_EclERSo
FN:64,_ZNK5boost9unit_test17lazy_ostream_implINS0_12lazy_ostreamEA1_cRA1_KcEclERSo
FN:64,_ZNK5boost9unit_test17lazy_ostream_implINS1_INS1_INS0_12lazy_ostreamEA1_cRA1_KcEEA10_cRA10_S4_EEA4_cRA4_S4_EclERSo
FN:64,_ZNK5boost9unit_test17lazy_ostream_implINS1_INS1_INS1_INS1_INS1_INS1_INS0_12lazy_ostreamEA1_cRA1_KcEEA10_cRA10_S4_EEA4_cRA4_S4_EENS_10test_tools9tt_detail14print_helper_tIiEERKSJ_EEA3_cRA3_S4_EEA8_cRA8_S4_EESC_SE_EclERSo
FN:64,_ZNK5boost9unit_test17lazy_ostream_implINS1_INS1_INS1_INS1_INS1_INS1_INS1_INS1_INS0_12lazy_ostreamEA1_cRA1_KcEEA3_cRA3_S4_EEA4_cRA4_S4_EENS_10test_tools9tt_detail14print_helper_tIiEERKSJ_EES8_SA_EES8_SA_EESC_SE_EESJ_SL_EES8_SA_EclERSo
FN:64,_ZNK5boost9unit_test17lazy_ostream_implINS1_INS1_INS1_INS1_INS1_INS0_12lazy_ostreamEA1_cRA1_KcEEA3_cRA3_S4_EEA4_cRA4_S4_EENS_10test_tools9tt_detail14print_helper_tIiEERKSJ_EES8_SA_EES8_SA_EclERSo
FN:64,_ZNK5boost9unit_test17lazy_ostream_implINS1_INS1_INS1_INS1_INS1_INS1_INS1_INS0_12lazy_ostreamEA1_cRA1_KcEEA3_cRA3_S4_EEA4_cRA4_S4_EENS_10test_tools9tt_detail14print_helper_tIiEERKSJ_EES8_SA_EES8_SA_EESC_SE_EESJ_SL_EclERSo
FN:64,_ZNK5boost9unit_test17lazy_ostream_implINS0_12lazy_ostreamEA24_cRA24_KcEclERSo
FN:64,_ZNK5boost9unit_test17lazy_ostream_implINS1_INS1_INS1_INS1_INS0_12lazy_ostreamEA1_cRA1_KcEEA10_cRA10_S4_EEA4_cRA4_S4_EENS_10test_tools9tt_detail14print_helper_tIiEERKSJ_EEA3_cRA3_S4_EclERSo
FN:64,_ZNK5boost9unit_test17lazy_ostream_implINS1_INS1_INS1_INS1_INS0_12lazy_ostreamEA1_cRA1_KcEEA7_cRA7_S4_EEA4_cRA4_S4_EENS_10test_tools9tt_detail14print_helper_tIiEERKSJ_EEA3_cRA3_S4_EclERSo
FN:64,_ZNK5boost9unit_test17lazy_ostream_implINS1_INS0_12lazy_ostreamEA1_cRA1_KcEEA3_cRA3_S4_EclERSo
FN:64,_ZNK5boost9unit_test17lazy_ostream_implINS0_12lazy_ostreamENS0_13basic_cstringIKcEERKS5_EclERSo
FN:64,_ZNK5boost9unit_test17lazy_ostream_implINS1_INS1_INS0_12lazy_ostreamEA1_cRA1_KcEEA3_cRA3_S4_EEA4_cRA4_S4_EclERSo
FN:64,_ZNK5boost9unit_test17lazy_ostream_implINS1_INS1_INS1_INS1_INS1_INS1_INS1_INS0_12lazy_ostreamEA1_cRA1_KcEEA10_cRA10_S4_EEA4_cRA4_S4_EENS_10test_tools9tt_detail14print_helper_tIiEERKSJ_EEA3_cRA3_S4_EEA8_cRA8_S4_EESC_SE_EESJ_SL_EclERSo
FN:64,_ZNK5boost9unit_test17lazy_ostream_implINS1_INS1_INS1_INS1_INS1_INS1_INS1_INS1_INS0_12lazy_ostreamEA1_cRA1_KcEEA7_cRA7_S4_EEA4_cRA4_S4_EENS_10test_tools9tt_detail14print_helper_tIiEERKSJ_EEA3_cRA3_S4_EEA15_cRA15_S4_EESC_SE_EESJ_SL_EESN_SP_EclERSo
FN:64,_ZNK5boost9unit_test17lazy_ostream_implINS1_INS1_INS1_INS1_INS1_INS1_INS1_INS0_12lazy_ostreamEA1_cRA1_KcEEA7_cRA7_S4_EEA4_cRA4_S4_EENS_10test_tools9tt_detail14print_helper_tIiEERKSJ_EEA3_cRA3_S4_EEA15_cRA15_S4_EESC_SE_EESJ_SL_EclERSo
FN:64,_ZNK5boost9unit_test17lazy_ostream_implINS1_INS1_INS1_INS1_INS1_INS0_12lazy_ostreamEA1_cRA1_KcEEA7_cRA7_S4_EEA4_cRA4_S4_EENS_10test_tools9tt_detail14print_helper_tIiEERKSJ_EEA3_cRA3_S4_EEA15_cRA15_S4_EclERSo
FN:64,_ZNK5boost9unit_test17lazy_ostream_implINS0_12lazy_ostreamEA66_cRA66_KcEclERSo
FN:64,_ZNK5boost9unit_test17lazy_ostream_implINS1_INS1_INS1_INS1_INS1_INS1_INS1_INS1_INS0_12lazy_ostreamEA1_cRA1_KcEEA10_cRA10_S4_EEA4_cRA4_S4_EENS_10test_tools9tt_detail14print_helper_tIiEERKSJ_EEA3_cRA3_S4_EEA8_cRA8_S4_EESC_SE_EESJ_SL_EESN_SP_EclERSo
FN:64,_ZNK5boost9unit_test17lazy_ostream_implINS1_INS1_INS1_INS1_INS1_INS1_INS0_12lazy_ostreamEA1_cRA1_KcEEA3_cRA3_S4_EEA4_cRA4_S4_EENS_10test_tools9tt_detail14print_helper_tIiEERKSJ_EES8_SA_EES8_SA_EESC_SE_EclERSo
FN:64,_ZNK5boost9unit_test17lazy_ostream_implINS1_INS0_12lazy_ostreamEA1_cRA1_KcEEA10_cRA10_S4_EclERSo
FN:78,_ZN5boost9unit_testlsIA69_cEENS0_17lazy_ostream_implINS0_12lazy_ostreamET_RKS5_EERKS4_S7_
FN:78,_ZN5boost9unit_testlsINS_10test_tools9tt_detail14print_helper_tIiEEEENS0_17lazy_ostream_implINS0_12lazy_ostreamET_RKS8_EERKS7_SA_
FN:78,_ZN5boost9unit_testlsIA1_cEENS0_17lazy_ostream_implINS0_12lazy_ostreamET_RKS5_EERKS4_S7_
FN:78,_ZN5boost9unit_testlsIA24_cEENS0_17lazy_ostream_implINS0_12lazy_ostreamET_RKS5_EERKS4_S7_
FN:78,_ZN5boost9unit_testlsIA66_cEENS0_17lazy_ostream_implINS0_12lazy_ostreamET_RKS5_EERKS4_S7_
FN:78,_ZN5boost9unit_testlsINS0_13basic_cstringIKcEEEENS0_17lazy_ostream_implINS0_12lazy_ostreamET_RKS7_EERKS6_S9_
FN:87,_ZN5boost9unit_testlsINS0_17lazy_ostream_implINS2_INS2_INS2_INS2_INS2_INS0_12lazy_ostreamEA1_cRA1_KcEEA10_cRA10_S5_EEA4_cRA4_S5_EENS_10test_tools9tt_detail14print_helper_tIiEERKSK_EEA3_cRA3_S5_EEA8_cRA8_S5_EESD_SK_EENS2_INS2_IT_T0_RKSX_EET1_RKS11_EERKS10_S13_
FN:87,_ZN5boost9unit_testlsINS0_17lazy_ostream_implINS0_12lazy_ostreamEA1_cRA1_KcEEA10_cA4_cEENS2_INS2_IT_T0_RKSC_EET1_RKSG_EERKSF_SI_
FN:87,_ZN5boost9unit_testlsINS0_17lazy_ostream_implINS2_INS2_INS2_INS2_INS0_12lazy_ostreamEA1_cRA1_KcEEA7_cRA7_S5_EEA4_cRA4_S5_EENS_10test_tools9tt_detail14print_helper_tIiEERKSK_EEA3_cRA3_S5_EEA15_cSD_EENS2_INS2_IT_T0_RKSU_EET1_RKSY_EERKSX_S10_
FN:87,_ZN5boost9unit_testlsINS0_17lazy_ostream_implINS2_INS0_12lazy_ostreamEA1_cRA1_KcEEA10_cRA10_S5_EEA4_cNS_10test_tools9tt_detail14print_helper_tIiEEEENS2_INS2_IT_T0_RKSJ_EET1_RKSN_EERKSM_SP_
FN:87,_ZN5boost9unit_testlsINS0_12lazy_ostreamEA1_cA3_cEENS0_17lazy_ostream_implINS5_IT_T0_RKS7_EET1_RKSB_EERKSA_SD_
FN:87,_ZN5boost9unit_testlsINS0_12lazy_ostreamEA1_cA7_cEENS0_17lazy_ostream_implINS5_IT_T0_RKS7_EET1_RKSB_EERKSA_SD_
FN:87,_ZN5boost9unit_testlsINS0_17lazy_ostream_implINS2_INS2_INS2_INS0_12lazy_ostreamEA1_cRA1_KcEEA7_cRA7_S5_EEA4_cRA4_S5_EENS_10test_tools9tt_detail14print_helper_tIiEERKSK_EEA3_cA15_cEENS2_INS2_IT_T0_RKSR_EET1_RKSV_EERKSU_SX_
FN:87,_ZN5boost9unit_testlsINS0_17lazy_ostream_implINS2_INS2_INS0_12lazy_ostreamEA1_cRA1_KcEEA7_cRA7_S5_EEA4_cRA4_S5_EENS_10test_tools9tt_detail14print_helper_tIiEEA3_cEENS2_INS2_IT_T0_RKSN_EET1_RKSR_EERKSQ_ST_
FN:87,_ZN5boost9unit_testlsINS0_17lazy_ostream_implINS0_12lazy_ostreamEA1_cRA1_KcEEA7_cA4_cEENS2_INS2_IT_T0_RKSC_EET1_RKSG_EERKSF_SI_
FN:87,_ZN5boost9unit_testlsINS0_17lazy_ostream_implINS2_INS2_INS2_INS2_INS0_12lazy_ostreamEA1_cRA1_KcEEA3_cRA3_S5_EEA4_cRA4_S5_EENS_10test_tools9tt_detail14print_helper_tIiEERKSK_EES9_SB_EES9_SD_EENS2_INS2_IT_T0_RKSQ_EET1_RKSU_EERKST_SW_
FN:87,_ZN5boost9unit_testlsINS0_17lazy_ostream_implINS2_INS2_INS0_12lazy_ostreamEA1_cRA1_KcEEA3_cRA3_S5_EEA4_cRA4_S5_EENS_10test_tools9tt_detail14print_helper_tIiEES9_EENS2_INS2_IT_T0_RKSM_EET1_RKSQ_EERKSP_SS_
FN:87,_ZN5boost9unit_testlsINS0_17lazy_ostream_implINS2_INS2_INS2_INS2_INS2_INS0_12lazy_ostreamEA1_cRA1_KcEEA3_cRA3_S5_EEA4_cRA4_S5_EENS_10test_tools9tt_detail14print_helper_tIiEERKSK_EES9_SB_EES9_SB_EESD_SK_EENS2_INS2_IT_T0_RKSR_EET1_RKSV_EERKSU_SX_
FN:87,_ZN5boost9unit_testlsINS0_17lazy_ostream_implINS2_INS2_INS0_12lazy_ostreamEA1_cRA1_KcEEA10_cRA10_S5_EEA4_cRA4_S5_EENS_10test_tools9tt_detail14print_helper_tIiEEA3_cEENS2_INS2_IT_T0_RKSN_EET1_RKSR_EERKSQ_ST_
FN:87,_ZN5boost9unit_testlsINS0_17lazy_ostream_implINS2_INS2_INS2_INS2_INS2_INS0_12lazy_ostreamEA1_cRA1_KcEEA7_cRA7_S5_EEA4_cRA4_S5_EENS_10test_tools9tt_detail14print_helper_tIiEERKSK_EEA3_cRA3_S5_EEA15_cRA15_S5_EESD_SK_EENS2_INS2_IT_T0_RKSX_EET1_RKS11_EERKS10_S13_
FN:87,_ZN5boost9unit_testlsINS0_12lazy_ostreamEA1_cA10_cEENS0_17lazy_ostream_implINS5_IT_T0_RKS7_EET1_RKSB_EERKSA_SD_
FN:87,_ZN5boost9unit_testlsINS0_17lazy_ostream_implINS2_INS2_INS2_INS0_12lazy_ostreamEA1_cRA1_KcEEA3_cRA3_S5_EEA4_cRA4_S5_EENS_10test_tools9tt_detail14print_helper_tIiEERKSK_EES9_S9_EENS2_INS2_IT_T0_RKSP_EET1_RKST_EERKSS_SV_
FN:87,_ZN5boost9unit_testlsINS0_17lazy_ostream_implINS2_INS0_12lazy_ostreamEA1_cRA1_KcEEA7_cRA7_S5_EEA4_cNS_10test_tools9tt_detail14print_helper_tIiEEEENS2_INS2_IT_T0_RKSJ_EET1_RKSN_EERKSM_SP_
FN:87,_ZN5boost9unit_testlsINS0_17lazy_ostream_implINS2_INS2_INS2_INS2_INS2_INS2_INS0_12lazy_ostreamEA1_cRA1_KcEEA3_cRA3_S5_EEA4_cRA4_S5_EENS_10test_tools9tt_detail14print_helper_tIiEERKSK_EES9_SB_EES9_SB_EESD_SF_EESK_S9_EENS2_INS2_IT_T0_RKSS_EET1_RKSW_EERKSV_SY_
FN:87,_ZN5boost9unit_testlsINS0_17lazy_ostream_implINS0_12lazy_ostreamEA1_cRA1_KcEEA3_cA4_cEENS2_INS2_IT_T0_RKSC_EET1_RKSG_EERKSF_SI_
FN:87,_ZN5boost9unit_testlsINS0_17lazy_ostream_implINS2_INS2_INS2_INS0_12lazy_ostreamEA1_cRA1_KcEEA10_cRA10_S5_EEA4_cRA4_S5_EENS_10test_tools9tt_detail14print_helper_tIiEERKSK_EEA3_cA8_cEENS2_INS2_IT_T0_RKSR_EET1_RKSV_EERKSU_SX_
FN:87,_ZN5boost9unit_testlsINS0_17lazy_ostream_implINS2_INS0_12lazy_ostreamEA1_cRA1_KcEEA3_cRA3_S5_EEA4_cNS_10test_tools9tt_detail14print_helper_tIiEEEENS2_INS2_IT_T0_RKSJ_EET1_RKSN_EERKSM_SP_
FN:87,_ZN5boost9unit_testlsINS0_17lazy_ostream_implINS2_INS2_INS2_INS2_INS0_12lazy_ostreamEA1_cRA1_KcEEA10_cRA10_S5_EEA4_cRA4_S5_EENS_10test_tools9tt_detail14print_helper_tIiEERKSK_EEA3_cRA3_S5_EEA8_cSD_EENS2_INS2_IT_T0_RKSU_EET1_RKSY_EERKSX_S10_
FN:87,_ZN5boost9unit_testlsINS0_17lazy_ostream_implINS2_INS2_INS2_INS2_INS2_INS2_INS0_12lazy_ostreamEA1_cRA1_KcEEA7_cRA7_S5_EEA4_cRA4_S5_EENS_10test_tools9tt_detail14print_helper_tIiEERKSK_EEA3_cRA3_S5_EEA15_cRA15_S5_EESD_SF_EESK_SO_EENS2_INS2_IT_T0_RKSY_EET1_RKS12_EERKS11_S14_
FN:87,_ZN5boost9unit_testlsINS0_17lazy_ostream_implINS2_INS2_INS2_INS2_INS2_INS2_INS0_12lazy_ostreamEA1_cRA1_KcEEA10_cRA10_S5_EEA4_cRA4_S5_EENS_10test_tools9tt_detail14print_helper_tIiEERKSK_EEA3_cRA3_S5_EEA8_cRA8_S5_EESD_SF_EESK_SO_EENS2_INS2_IT_T0_RKSY_EET1_RKS12_EERKS11_S14_
FNDA:0,_ZN5boost9unit_test12lazy_ostreamD0Ev
FNDA:293,_ZN5boost9unit_test12lazy_ostreamD2Ev
FNDA:76,_ZN5boost9unit_test12lazy_ostream8instanceEv
FNDA:27,_ZNK5boost9unit_test12lazy_ostreamclERSo
FNDA:293,_ZN5boost9unit_test12lazy_ostreamC2Eb
FNDA:0,_ZN5boost9unit_test17lazy_ostream_implINS0_12lazy_ostreamENS_10test_tools9tt_detail14print_helper_tIiEERKS6_ED0Ev
FNDA:18,_ZN5boost9unit_test17lazy_ostream_implINS0_12lazy_ostreamENS_10test_tools9tt_detail14print_helper_tIiEERKS6_ED2Ev
FNDA:0,_ZN5boost9unit_test17lazy_ostream_implINS0_12lazy_ostreamENS0_13basic_cstringIKcEERKS5_ED0Ev
FNDA:18,_ZN5boost9unit_test17lazy_ostream_implINS0_12lazy_ostreamENS0_13basic_cstringIKcEERKS5_ED2Ev
FNDA:0,_ZN5boost9unit_test17lazy_ostream_implINS1_INS1_INS1_INS1_INS1_INS1_INS1_INS1_INS0_12lazy_ostreamEA1_cRA1_KcEEA7_cRA7_S4_EEA4_cRA4_S4_EENS_10test_tools9tt_detail14print_helper_tIiEERKSJ_EEA3_cRA3_S4_EEA15_cRA15_S4_EESC_SE_EESJ_SL_EESN_SP_ED0Ev
FNDA:3,_ZN5boost9unit_test17lazy_ostream_implINS1_INS1_INS1_INS1_INS1_INS1_INS1_INS1_INS0_12lazy_ostreamEA1_cRA1_KcEEA7_cRA7_S4_EEA4_cRA4_S4_EENS_10test_tools9tt_detail14print_helper_tIiEERKSJ_EEA3_cRA3_S4_EEA15_cRA15_S4_EESC_SE_EESJ_SL_EESN_SP_ED2Ev
FNDA:0,_ZN5boost9unit_test17lazy_ostream_implINS1_INS1_INS1_INS1_INS1_INS1_INS1_INS0_12lazy_ostreamEA1_cRA1_KcEEA7_cRA7_S4_EEA4_cRA4_S4_EENS_10test_tools9tt_detail14print_helper_tIiEERKSJ_EEA3_cRA3_S4_EEA15_cRA15_S4_EESC_SE_EESJ_SL_ED0Ev
FNDA:3,_ZN5boost9unit_test17lazy_ostream_implINS1_INS1_INS1_INS1_INS1_INS1_INS1_INS0_12lazy_ostreamEA1_cRA1_KcEEA7_cRA7_S4_EEA4_cRA4_S4_EENS_10test_tools9tt_detail14print_helper_tIiEERKSJ_EEA3_cRA3_S4_EEA15_cRA15_S4_EESC_SE_EESJ_SL_ED2Ev
FNDA:0,_ZN5boost9unit_test17lazy_ostream_implINS1_INS1_INS1_INS1_INS1_INS1_INS0_12lazy_ostreamEA1_cRA1_KcEEA7_cRA7_S4_EEA4_cRA4_S4_EENS_10test_tools9tt_detail14print_helper_tIiEERKSJ_EEA3_cRA3_S4_EEA15_cRA15_S4_EESC_SE_ED0Ev
FNDA:3,_ZN5boost9unit_test17lazy_ostream_implINS1_INS1_INS1_INS1_INS1_INS1_INS0_12lazy_ostreamEA1_cRA1_KcEEA7_cRA7_S4_EEA4_cRA4_S4_EENS_10test_tools9tt_detail14print_helper_tIiEERKSJ_EEA3_cRA3_S4_EEA15_cRA15_S4_EESC_SE_ED2Ev
FNDA:0,_ZN5boost9unit_test17lazy_ostream_implINS1_INS1_INS1_INS1_INS1_INS0_12lazy_ostreamEA1_cRA1_KcEEA7_cRA7_S4_EEA4_cRA4_S4_EENS_10test_tools9tt_detail14print_helper_tIiEERKSJ_EEA3_cRA3_S4_EEA15_cRA15_S4_ED0Ev
FNDA:3,_ZN5boost9unit_test17lazy_ostream_implINS1_INS1_INS1_INS1_INS1_INS0_12lazy_ostreamEA1_cRA1_KcEEA7_cRA7_S4_EEA4_cRA4_S4_EENS_10test_tools9tt_detail14print_helper_tIiEERKSJ_EEA3_cRA3_S4_EEA15_cRA15_S4_ED2Ev
FNDA:0,_ZN5boost9unit_test17lazy_ostream_implINS1_INS1_INS1_INS1_INS0_12lazy_ostreamEA1_cRA1_KcEEA7_cRA7_S4_EEA4_cRA4_S4_EENS_10test_tools9tt_detail14print_helper_tIiEERKSJ_EEA3_cRA3_S4_ED0Ev
FNDA:3,_ZN5boost9unit_test17lazy_ostream_implINS1_INS1_INS1_INS1_INS0_12lazy_ostreamEA1_cRA1_KcEEA7_cRA7_S4_EEA4_cRA4_S4_EENS_10test_tools9tt_detail14print_helper_tIiEERKSJ_EEA3_cRA3_S4_ED2Ev
FNDA:0,_ZN5boost9unit_test17lazy_ostream_implINS1_INS1_INS1_INS0_12lazy_ostreamEA1_cRA1_KcEEA7_cRA7_S4_EEA4_cRA4_S4_EENS_10test_tools9tt_detail14print_helper_tIiEERKSJ_ED0Ev
FNDA:3,_ZN5boost9unit_test17lazy_ostream_implINS1_INS1_INS1_INS0_12lazy_ostreamEA1_cRA1_KcEEA7_cRA7_S4_EEA4_cRA4_S4_EENS_10test_tools9tt_detail14print_helper_tIiEERKSJ_ED2Ev
FNDA:0,_ZN5boost9unit_test17lazy_ostream_implINS1_INS1_INS0_12lazy_ostreamEA1_cRA1_KcEEA7_cRA7_S4_EEA4_cRA4_S4_ED0Ev
FNDA:3,_ZN5boost9unit_test17lazy_ostream_implINS1_INS1_INS0_12lazy_ostreamEA1_cRA1_KcEEA7_cRA7_S4_EEA4_cRA4_S4_ED2Ev
FNDA:0,_ZN5boost9unit_test17lazy_ostream_implINS1_INS0_12lazy_ostreamEA1_cRA1_KcEEA7_cRA7_S4_ED0Ev
FNDA:3,_ZN5boost9unit_test17lazy_ostream_implINS1_INS0_12lazy_ostreamEA1_cRA1_KcEEA7_cRA7_S4_ED2Ev
FNDA:0,_ZN5boost9unit_test17lazy_ostream_implINS1_INS1_INS1_INS1_INS1_INS1_INS1_INS1_INS0_12lazy_ostreamEA1_cRA1_KcEEA10_cRA10_S4_EEA4_cRA4_S4_EENS_10test_tools9tt_detail14print_helper_tIiEERKSJ_EEA3_cRA3_S4_EEA8_cRA8_S4_EESC_SE_EESJ_SL_EESN_SP_ED0Ev
FNDA:6,_ZN5boost9unit_test17lazy_ostream_implINS1_INS1_INS1_INS1_INS1_INS1_INS1_INS1_INS0_12lazy_ostreamEA1_cRA1_KcEEA10_cRA10_S4_EEA4_cRA4_S4_EENS_10test_tools9tt_detail14print_helper_tIiEERKSJ_EEA3_cRA3_S4_EEA8_cRA8_S4_EESC_SE_EESJ_SL_EESN_SP_ED2Ev
FNDA:0,_ZN5boost9unit_test17lazy_ostream_implINS1_INS1_INS1_INS1_INS1_INS1_INS1_INS0_12lazy_ostreamEA1_cRA1_KcEEA10_cRA10_S4_EEA4_cRA4_S4_EENS_10test_tools9tt_detail14print_helper_tIiEERKSJ_EEA3_cRA3_S4_EEA8_cRA8_S4_EESC_SE_EESJ_SL_ED0Ev
FNDA:6,_ZN5boost9unit_test17lazy_ostream_implINS1_INS1_INS1_INS1_INS1_INS1_INS1_INS0_12lazy_ostreamEA1_cRA1_KcEEA10_cRA10_S4_EEA4_cRA4_S4_EENS_10test_tools9tt_detail14print_helper_tIiEERKSJ_EEA3_cRA3_S4_EEA8_cRA8_S4_EESC_SE_EESJ_SL_ED2Ev
FNDA:0,_ZN5boost9unit_test17lazy_ostream_implINS1_INS1_INS1_INS1_INS1_INS1_INS0_12lazy_ostreamEA1_cRA1_KcEEA10_cRA10_S4_EEA4_cRA4_S4_EENS_10test_tools9tt_detail14print_helper_tIiEERKSJ_EEA3_cRA3_S4_EEA8_cRA8_S4_EESC_SE_ED0Ev
FNDA:6,_ZN5boost9unit_test17lazy_ostream_implINS1_INS1_INS1_INS1_INS1_INS1_INS0_12lazy_ostreamEA1_cRA1_KcEEA10_cRA10_S4_EEA4_cRA4_S4_EENS_10test_tools9tt_detail14print_helper_tIiEERKSJ_EEA3_cRA3_S4_EEA8_cRA8_S4_EESC_SE_ED2Ev
FNDA:0,_ZN5boost9unit_test17lazy_ostream_implINS1_INS1_INS1_INS1_INS1_INS0_12lazy_ostreamEA1_cRA1_KcEEA10_cRA10_S4_EEA4_cRA4_S4_EENS_10test_tools9tt_detail14print_helper_tIiEERKSJ_EEA3_cRA3_S4_EEA8_cRA8_S4_ED0Ev
FNDA:6,_ZN5boost9unit_test17lazy_ostream_implINS1_INS1_INS1_INS1_INS1_INS0_12lazy_ostreamEA1_cRA1_KcEEA10_cRA10_S4_EEA4_cRA4_S4_EENS_10test_tools9tt_detail14print_helper_tIiEERKSJ_EEA3_cRA3_S4_EEA8_cRA8_S4_ED2Ev
FNDA:0,_ZN5boost9unit_test17lazy_ostream_implINS1_INS1_INS1_INS1_INS0_12lazy_ostreamEA1_cRA1_KcEEA10_cRA10_S4_EEA4_cRA4_S4_EENS_10test_tools9tt_detail14print_helper_tIiEERKSJ_EEA3_cRA3_S4_ED0Ev
FNDA:6,_ZN5boost9unit_test17lazy_ostream_implINS1_INS1_INS1_INS1_INS0_12lazy_ostreamEA1_cRA1_KcEEA10_cRA10_S4_EEA4_cRA4_S4_EENS_10test_tools9tt_detail14print_helper_tIiEERKSJ_EEA3_cRA3_S4_ED2Ev
FNDA:0,_ZN5boost9unit_test17lazy_ostream_implINS1_INS1_INS1_INS0_12lazy_ostreamEA1_cRA1_KcEEA10_cRA10_S4_EEA4_cRA4_S4_EENS_10test_tools9tt_detail14print_helper_tIiEERKSJ_ED0Ev
FNDA:6,_ZN5boost9unit_test17lazy_ostream_implINS1_INS1_INS1_INS0_12lazy_ostreamEA1_cRA1_KcEEA10_cRA10_S4_EEA4_cRA4_S4_EENS_10test_tools9tt_detail14print_helper_tIiEERKSJ_ED2Ev
FNDA:0,_ZN5boost9unit_test17lazy_ostream_implINS1_INS1_INS0_12lazy_ostreamEA1_cRA1_KcEEA10_cRA10_S4_EEA4_cRA4_S4_ED0Ev
FNDA:6,_ZN5boost9unit_test17lazy_ostream_implINS1_INS1_INS0_12lazy_ostreamEA1_cRA1_KcEEA10_cRA10_S4_EEA4_cRA4_S4_ED2Ev
FNDA:0,_ZN5boost9unit_test17lazy_ostream_implINS1_INS0_12lazy_ostreamEA1_cRA1_KcEEA10_cRA10_S4_ED0Ev
FNDA:6,_ZN5boost9unit_test17lazy_ostream_implINS1_INS0_12lazy_ostreamEA1_cRA1_KcEEA10_cRA10_S4_ED2Ev
FNDA:0,_ZN5boost9unit_test17lazy_ostream_implINS1_INS1_INS1_INS1_INS1_INS1_INS1_INS1_INS0_12lazy_ostreamEA1_cRA1_KcEEA3_cRA3_S4_EEA4_cRA4_S4_EENS_10test_tools9tt_detail14print_helper_tIiEERKSJ_EES8_SA_EES8_SA_EESC_SE_EESJ_SL_EES8_SA_ED0Ev
FNDA:18,_ZN5boost9unit_test17lazy_ostream_implINS1_INS1_INS1_INS1_INS1_INS1_INS1_INS1_INS0_12lazy_ostreamEA1_cRA1_KcEEA3_cRA3_S4_EEA4_cRA4_S4_EENS_10test_tools9tt_detail14print_helper_tIiEERKSJ_EES8_SA_EES8_SA_EESC_SE_EESJ_SL_EES8_SA_ED2Ev
FNDA:0,_ZN5boost9unit_test17lazy_ostream_implINS1_INS1_INS1_INS1_INS1_INS1_INS1_INS0_12lazy_ostreamEA1_cRA1_KcEEA3_cRA3_S4_EEA4_cRA4_S4_EENS_10test_tools9tt_detail14print_helper_tIiEERKSJ_EES8_SA_EES8_SA_EESC_SE_EESJ_SL_ED0Ev
FNDA:18,_ZN5boost9unit_test17lazy_ostream_implINS1_INS1_INS1_INS1_INS1_INS1_INS1_INS0_12lazy_ostreamEA1_cRA1_KcEEA3_cRA3_S4_EEA4_cRA4_S4_EENS_10test_tools9tt_detail14print_helper_tIiEERKSJ_EES8_SA_EES8_SA_EESC_SE_EESJ_SL_ED2Ev
FNDA:0,_ZN5boost9unit_test17lazy_ostream_implINS1_INS1_INS1_INS1_INS1_INS1_INS0_12lazy_ostreamEA1_cRA1_KcEEA3_cRA3_S4_EEA4_cRA4_S4_EENS_10test_tools9tt_detail14print_helper_tIiEERKSJ_EES8_SA_EES8_SA_EESC_SE_ED0Ev
FNDA:18,_ZN5boost9unit_test17lazy_ostream_implINS1_INS1_INS1_INS1_INS1_INS1_INS0_12lazy_ostreamEA1_cRA1_KcEEA3_cRA3_S4_EEA4_cRA4_S4_EENS_10test_tools9tt_detail14print_helper_tIiEERKSJ_EES8_SA_EES8_SA_EESC_SE_ED2Ev
FNDA:0,_ZN5boost9unit_test17lazy_ostream_implINS1_INS1_INS1_INS1_INS1_INS0_12lazy_ostreamEA1_cRA1_KcEEA3_cRA3_S4_EEA4_cRA4_S4_EENS_10test_tools9tt_detail14print_helper_tIiEERKSJ_EES8_SA_EES8_SA_ED0Ev
FNDA:18,_ZN5boost9unit_test17lazy_ostream_implINS1_INS1_INS1_INS1_INS1_INS0_12lazy_ostreamEA1_cRA1_KcEEA3_cRA3_S4_EEA4_cRA4_S4_EENS_10test_tools9tt_detail14print_helper_tIiEERKSJ_EES8_SA_EES8_SA_ED2Ev
FNDA:0,_ZN5boost9unit_test17lazy_ostream_implINS1_INS1_INS1_INS1_INS0_12lazy_ostreamEA1_cRA1_KcEEA3_cRA3_S4_EEA4_cRA4_S4_EENS_10test_tools9tt_detail14print_helper_tIiEERKSJ_EES8_SA_ED0Ev
FNDA:18,_ZN5boost9unit_test17lazy_ostream_implINS1_INS1_INS1_INS1_INS0_12lazy_ostreamEA1_cRA1_KcEEA3_cRA3_S4_EEA4_cRA4_S4_EENS_10test_tools9tt_detail14print_helper_tIiEERKSJ_EES8_SA_ED2Ev
FNDA:0,_ZN5boost9unit_test17lazy_ostream_implINS1_INS1_INS1_INS0_12lazy_ostreamEA1_cRA1_KcEEA3_cRA3_S4_EEA4_cRA4_S4_EENS_10test_tools9tt_detail14print_helper_tIiEERKSJ_ED0Ev
FNDA:18,_ZN5boost9unit_test17lazy_ostream_implINS1_INS1_INS1_INS0_12lazy_ostreamEA1_cRA1_KcEEA3_cRA3_S4_EEA4_cRA4_S4_EENS_10test_tools9tt_detail14print_helper_tIiEERKSJ_ED2Ev
FNDA:0,_ZN5boost9unit_test17lazy_ostream_implINS1_INS1_INS0_12lazy_ostreamEA1_cRA1_KcEEA3_cRA3_S4_EEA4_cRA4_S4_ED0Ev
FNDA:18,_ZN5boost9unit_test17lazy_ostream_implINS1_INS1_INS0_12lazy_ostreamEA1_cRA1_KcEEA3_cRA3_S4_EEA4_cRA4_S4_ED2Ev
FNDA:0,_ZN5boost9unit_test17lazy_ostream_implINS1_INS0_12lazy_ostreamEA1_cRA1_KcEEA3_cRA3_S4_ED0Ev
FNDA:18,_ZN5boost9unit_test17lazy_ostream_implINS1_INS0_12lazy_ostreamEA1_cRA1_KcEEA3_cRA3_S4_ED2Ev
FNDA:0,_ZN5boost9unit_test17lazy_ostream_implINS0_12lazy_ostreamEA1_cRA1_KcED0Ev
FNDA:36,_ZN5boost9unit_test17lazy_ostream_implINS0_12lazy_ostreamEA1_cRA1_KcED2Ev
FNDA:0,_ZN5boost9unit_test17lazy_ostream_implINS0_12lazy_ostreamEA24_cRA24_KcED0Ev
FNDA:1,_ZN5boost9unit_test17lazy_ostream_implINS0_12lazy_ostreamEA24_cRA24_KcED2Ev
FNDA:0,_ZN5boost9unit_test17lazy_ostream_implINS0_12lazy_ostreamEA69_cRA69_KcED0Ev
FNDA:0,_ZN5boost9unit_test17lazy_ostream_implINS0_12lazy_ostreamEA69_cRA69_KcED2Ev
FNDA:0,_ZN5boost9unit_test17lazy_ostream_implINS0_12lazy_ostreamEA66_cRA66_KcED0Ev
FNDA:3,_ZN5boost9unit_test17lazy_ostream_implINS0_12lazy_ostreamEA66_cRA66_KcED2Ev
FNDA:18,_ZN5boost9unit_test17lazy_ostream_implINS0_12lazy_ostreamENS_10test_tools9tt_detail14print_helper_tIiEERKS6_EC2ERKS2_S8_
FNDA:18,_ZN5boost9unit_test17lazy_ostream_implINS0_12lazy_ostreamENS0_13basic_cstringIKcEERKS5_EC2ERKS2_S7_
FNDA:3,_ZN5boost9unit_test17lazy_ostream_implINS1_INS1_INS1_INS1_INS1_INS1_INS1_INS1_INS0_12lazy_ostreamEA1_cRA1_KcEEA7_cRA7_S4_EEA4_cRA4_S4_EENS_10test_tools9tt_detail14print_helper_tIiEERKSJ_EEA3_cRA3_S4_EEA15_cRA15_S4_EESC_SE_EESJ_SL_EESN_SP_EC2ERKSW_SP_
FNDA:3,_ZN5boost9unit_test17lazy_ostream_implINS1_INS1_INS1_INS1_INS1_INS1_INS1_INS0_12lazy_ostreamEA1_cRA1_KcEEA7_cRA7_S4_EEA4_cRA4_S4_EENS_10test_tools9tt_detail14print_helper_tIiEERKSJ_EEA3_cRA3_S4_EEA15_cRA15_S4_EESC_SE_EESJ_SL_EC2ERKSV_SL_
FNDA:3,_ZN5boost9unit_test17lazy_ostream_implINS1_INS1_INS1_INS1_INS1_INS1_INS0_12lazy_ostreamEA1_cRA1_KcEEA7_cRA7_S4_EEA4_cRA4_S4_EENS_10test_tools9tt_detail14print_helper_tIiEERKSJ_EEA3_cRA3_S4_EEA15_cRA15_S4_EESC_SE_EC2ERKSU_SE_
FNDA:3,_ZN5boost9unit_test17lazy_ostream_implINS1_INS1_INS1_INS1_INS1_INS0_12lazy_ostreamEA1_cRA1_KcEEA7_cRA7_S4_EEA4_cRA4_S4_EENS_10test_tools9tt_detail14print_helper_tIiEERKSJ_EEA3_cRA3_S4_EEA15_cRA15_S4_EC2ERKSQ_ST_
FNDA:3,_ZN5boost9unit_test17lazy_ostream_implINS1_INS1_INS1_INS1_INS0_12lazy_ostreamEA1_cRA1_KcEEA7_cRA7_S4_EEA4_cRA4_S4_EENS_10test_tools9tt_detail14print_helper_tIiEERKSJ_EEA3_cRA3_S4_EC2ERKSM_SP_
FNDA:3,_ZN5boost9unit_test17lazy_ostream_implINS1_INS1_INS1_INS0_12lazy_ostreamEA1_cRA1_KcEEA7_cRA7_S4_EEA4_cRA4_S4_EENS_10test_tools9tt_detail14print_helper_tIiEERKSJ_EC2ERKSF_SL_
FNDA:3,_ZN5boost9unit_test17lazy_ostream_implINS1_INS0_12lazy_ostreamEA1_cRA1_KcEEA7_cRA7_S4_EC2ERKS7_SA_
FNDA:3,_ZN5boost9unit_test17lazy_ostream_implINS1_INS1_INS0_12lazy_ostreamEA1_cRA1_KcEEA7_cRA7_S4_EEA4_cRA4_S4_EC2ERKSB_SE_
FNDA:6,_ZN5boost9unit_test17lazy_ostream_implINS1_INS1_INS1_INS1_INS1_INS1_INS1_INS1_INS0_12lazy_ostreamEA1_cRA1_KcEEA10_cRA10_S4_EEA4_cRA4_S4_EENS_10test_tools9tt_detail14print_helper_tIiEERKSJ_EEA3_cRA3_S4_EEA8_cRA8_S4_EESC_SE_EESJ_SL_EESN_SP_EC2ERKSW_SP_
FNDA:6,_ZN5boost9unit_test17lazy_ostream_implINS1_INS1_INS1_INS1_INS1_INS1_INS1_INS0_12lazy_ostreamEA1_cRA1_KcEEA10_cRA10_S4_EEA4_cRA4_S4_EENS_10test_tools9tt_detail14print_helper_tIiEERKSJ_EEA3_cRA3_S4_EEA8_cRA8_S4_EESC_SE_EESJ_SL_EC2ERKSV_SL_
FNDA:6,_ZN5boost9unit_test17lazy_ostream_implINS1_INS1_INS1_INS1_INS1_INS1_INS0_12lazy_ostreamEA1_cRA1_KcEEA10_cRA10_S4_EEA4_cRA4_S4_EENS_10test_tools9tt_detail14print_helper_tIiEERKSJ_EEA3_cRA3_S4_EEA8_cRA8_S4_EESC_SE_EC2ERKSU_SE_
FNDA:6,_ZN5boost9unit_test17lazy_ostream_implINS1_INS1_INS1_INS1_INS1_INS0_12lazy_ostreamEA1_cRA1_KcEEA10_cRA10_S4_EEA4_cRA4_S4_EENS_10test_tools9tt_detail14print_helper_tIiEERKSJ_EEA3_cRA3_S4_EEA8_cRA8_S4_EC2ERKSQ_ST_
FNDA:6,_ZN5boost9unit_test17lazy_ostream_implINS1_INS1_INS1_INS1_INS0_12lazy_ostreamEA1_cRA1_KcEEA10_cRA10_S4_EEA4_cRA4_S4_EENS_10test_tools9tt_detail14print_helper_tIiEERKSJ_EEA3_cRA3_S4_EC2ERKSM_SP_
FNDA:6,_ZN5boost9unit_test17lazy_ostream_implINS1_INS1_INS1_INS0_12lazy_ostreamEA1_cRA1_KcEEA10_cRA10_S4_EEA4_cRA4_S4_EENS_10test_tools9tt_detail14print_helper_tIiEERKSJ_EC2ERKSF_SL_
FNDA:6,_ZN5boost9unit_test17lazy_ostream_implINS1_INS0_12lazy_ostreamEA1_cRA1_KcEEA10_cRA10_S4_EC2ERKS7_SA_
FNDA:6,_ZN5boost9unit_test17lazy_ostream_implINS1_INS1_INS0_12lazy_ostreamEA1_cRA1_KcEEA10_cRA10_S4_EEA4_cRA4_S4_EC2ERKSB_SE_
FNDA:18,_ZN5boost9unit_test17lazy_ostream_implINS1_INS1_INS1_INS1_INS1_INS1_INS1_INS1_INS0_12lazy_ostreamEA1_cRA1_KcEEA3_cRA3_S4_EEA4_cRA4_S4_EENS_10test_tools9tt_detail14print_helper_tIiEERKSJ_EES8_SA_EES8_SA_EESC_SE_EESJ_SL_EES8_SA_EC2ERKSQ_SA_
FNDA:18,_ZN5boost9unit_test17lazy_ostream_implINS1_INS1_INS1_INS1_INS1_INS1_INS1_INS0_12lazy_ostreamEA1_cRA1_KcEEA3_cRA3_S4_EEA4_cRA4_S4_EENS_10test_tools9tt_detail14print_helper_tIiEERKSJ_EES8_SA_EES8_SA_EESC_SE_EESJ_SL_EC2ERKSP_SL_
FNDA:18,_ZN5boost9unit_test17lazy_ostream_implINS1_INS1_INS1_INS1_INS1_INS1_INS0_12lazy_ostreamEA1_cRA1_KcEEA3_cRA3_S4_EEA4_cRA4_S4_EENS_10test_tools9tt_detail14print_helper_tIiEERKSJ_EES8_SA_EES8_SA_EESC_SE_EC2ERKSO_SE_
FNDA:18,_ZN5boost9unit_test17lazy_ostream_implINS1_INS1_INS1_INS1_INS1_INS0_12lazy_ostreamEA1_cRA1_KcEEA3_cRA3_S4_EEA4_cRA4_S4_EENS_10test_tools9tt_detail14print_helper_tIiEERKSJ_EES8_SA_EES8_SA_EC2ERKSN_SA_
FNDA:18,_ZN5boost9unit_test17lazy_ostream_implINS1_INS1_INS1_INS1_INS0_12lazy_ostreamEA1_cRA1_KcEEA3_cRA3_S4_EEA4_cRA4_S4_EENS_10test_tools9tt_detail14print_helper_tIiEERKSJ_EES8_SA_EC2ERKSM_SA_
FNDA:18,_ZN5boost9unit_test17lazy_ostream_implINS1_INS1_INS1_INS0_12lazy_ostreamEA1_cRA1_KcEEA3_cRA3_S4_EEA4_cRA4_S4_EENS_10test_tools9tt_detail14print_helper_tIiEERKSJ_EC2ERKSF_SL_
FNDA:36,_ZN5boost9unit_test17lazy_ostream_implINS0_12lazy_ostreamEA1_cRA1_KcEC2ERKS2_S6_
FNDA:18,_ZN5boost9unit_test17lazy_ostream_implINS1_INS0_12lazy_ostreamEA1_cRA1_KcEEA3_cRA3_S4_EC2ERKS7_SA_
FNDA:18,_ZN5boost9unit_test17lazy_ostream_implINS1_INS1_INS0_12lazy_ostreamEA1_cRA1_KcEEA3_cRA3_S4_EEA4_cRA4_S4_EC2ERKSB_SE_
FNDA:3,_ZN5boost9unit_test17lazy_ostream_implINS0_12lazy_ostreamEA66_cRA66_KcEC2ERKS2_S6_
FNDA:0,_ZN5boost9unit_test17lazy_ostream_implINS0_12lazy_ostreamEA69_cRA69_KcEC2ERKS2_S6_
FNDA:1,_ZN5boost9unit_test17lazy_ostream_implINS0_12lazy_ostreamEA24_cRA24_KcEC2ERKS2_S6_
FNDA:27,_ZNK5boost9unit_test17lazy_ostream_implINS0_12lazy_ostreamEA1_cRA1_KcEclERSo
FNDA:3,_ZNK5boost9unit_test17lazy_ostream_implINS1_INS0_12lazy_ostreamEA1_cRA1_KcEEA7_cRA7_S4_EclERSo
FNDA:6,_ZNK5boost9unit_test17lazy_ostream_implINS1_INS0_12lazy_ostreamEA1_cRA1_KcEEA10_cRA10_S4_EclERSo
FNDA:18,_ZNK5boost9unit_test17lazy_ostream_implINS1_INS0_12lazy_ostreamEA1_cRA1_KcEEA3_cRA3_S4_EclERSo
FNDA:18,_ZNK5boost9unit_test17lazy_ostream_implINS1_INS1_INS0_12lazy_ostreamEA1_cRA1_KcEEA3_cRA3_S4_EEA4_cRA4_S4_EclERSo
FNDA:18,_ZNK5boost9unit_test17lazy_ostream_implINS1_INS1_INS1_INS0_12lazy_ostreamEA1_cRA1_KcEEA3_cRA3_S4_EEA4_cRA4_S4_EENS_10test_tools9tt_detail14print_helper_tIiEERKSJ_EclERSo
FNDA:18,_ZNK5boost9unit_test17lazy_ostream_implINS1_INS1_INS1_INS1_INS0_12lazy_ostreamEA1_cRA1_KcEEA3_cRA3_S4_EEA4_cRA4_S4_EENS_10test_tools9tt_detail14print_helper_tIiEERKSJ_EES8_SA_EclERSo
FNDA:18,_ZNK5boost9unit_test17lazy_ostream_implINS1_INS1_INS1_INS1_INS1_INS0_12lazy_ostreamEA1_cRA1_KcEEA3_cRA3_S4_EEA4_cRA4_S4_EENS_10test_tools9tt_detail14print_helper_tIiEERKSJ_EES8_SA_EES8_SA_EclERSo
FNDA:18,_ZNK5boost9unit_test17lazy_ostream_implINS1_INS1_INS1_INS1_INS1_INS1_INS0_12lazy_ostreamEA1_cRA1_KcEEA3_cRA3_S4_EEA4_cRA4_S4_EENS_10test_tools9tt_detail14print_helper_tIiEERKSJ_EES8_SA_EES8_SA_EESC_SE_EclERSo
FNDA:18,_ZNK5boost9unit_test17lazy_ostream_implINS1_INS1_INS1_INS1_INS1_INS1_INS1_INS0_12lazy_ostreamEA1_cRA1_KcEEA3_cRA3_S4_EEA4_cRA4_S4_EENS_10test_tools9tt_detail14print_helper_tIiEERKSJ_EES8_SA_EES8_SA_EESC_SE_EESJ_SL_EclERSo
FNDA:18,_ZNK5boost9unit_test17lazy_ostream_implINS1_INS1_INS1_INS1_INS1_INS1_INS1_INS1_INS0_12lazy_ostreamEA1_cRA1_KcEEA3_cRA3_S4_EEA4_cRA4_S4_EENS_10test_tools9tt_detail14print_helper_tIiEERKSJ_EES8_SA_EES8_SA_EESC_SE_EESJ_SL_EES8_SA_EclERSo
FNDA:6,_ZNK5boost9unit_test17lazy_ostream_implINS1_INS1_INS0_12lazy_ostreamEA1_cRA1_KcEEA10_cRA10_S4_EEA4_cRA4_S4_EclERSo
FNDA:6,_ZNK5boost9unit_test17lazy_ostream_implINS1_INS1_INS1_INS0_12lazy_ostreamEA1_cRA1_KcEEA10_cRA10_S4_EEA4_cRA4_S4_EENS_10test_tools9tt_detail14print_helper_tIiEERKSJ_EclERSo
FNDA:6,_ZNK5boost9unit_test17lazy_ostream_implINS1_INS1_INS1_INS1_INS0_12lazy_ostreamEA1_cRA1_KcEEA10_cRA10_S4_EEA4_cRA4_S4_EENS_10test_tools9tt_detail14print_helper_tIiEERKSJ_EEA3_cRA3_S4_EclERSo
FNDA:6,_ZNK5boost9unit_test17lazy_ostream_implINS1_INS1_INS1_INS1_INS1_INS0_12lazy_ostreamEA1_cRA1_KcEEA10_cRA10_S4_EEA4_cRA4_S4_EENS_10test_tools9tt_detail14print_helper_tIiEERKSJ_EEA3_cRA3_S4_EEA8_cRA8_S4_EclERSo
FNDA:6,_ZNK5boost9unit_test17lazy_ostream_implINS1_INS1_INS1_INS1_INS1_INS1_INS0_12lazy_ostreamEA1_cRA1_KcEEA10_cRA10_S4_EEA4_cRA4_S4_EENS_10test_tools9tt_detail14print_helper_tIiEERKSJ_EEA3_cRA3_S4_EEA8_cRA8_S4_EESC_SE_EclERSo
FNDA:6,_ZNK5boost9unit_test17lazy_ostream_implINS1_INS1_INS1_INS1_INS1_INS1_INS1_INS0_12lazy_ostreamEA1_cRA1_KcEEA10_cRA10_S4_EEA4_cRA4_S4_EENS_10test_tools9tt_detail14print_helper_tIiEERKSJ_EEA3_cRA3_S4_EEA8_cRA8_S4_EESC_SE_EESJ_SL_EclERSo
FNDA:6,_ZNK5boost9unit_test17lazy_ostream_implINS1_INS1_INS1_INS1_INS1_INS1_INS1_INS1_INS0_12lazy_ostreamEA1_cRA1_KcEEA10_cRA10_S4_EEA4_cRA4_S4_EENS_10test_tools9tt_detail14print_helper_tIiEERKSJ_EEA3_cRA3_S4_EEA8_cRA8_S4_EESC_SE_EESJ_SL_EESN_SP_EclERSo
FNDA:3,_ZNK5boost9unit_test17lazy_ostream_implINS1_INS1_INS0_12lazy_ostreamEA1_cRA1_KcEEA7_cRA7_S4_EEA4_cRA4_S4_EclERSo
FNDA:3,_ZNK5boost9unit_test17lazy_ostream_implINS1_INS1_INS1_INS0_12lazy_ostreamEA1_cRA1_KcEEA7_cRA7_S4_EEA4_cRA4_S4_EENS_10test_tools9tt_detail14print_helper_tIiEERKSJ_EclERSo
FNDA:3,_ZNK5boost9unit_test17lazy_ostream_implINS1_INS1_INS1_INS1_INS0_12lazy_ostreamEA1_cRA1_KcEEA7_cRA7_S4_EEA4_cRA4_S4_EENS_10test_tools9tt_detail14print_helper_tIiEERKSJ_EEA3_cRA3_S4_EclERSo
FNDA:3,_ZNK5boost9unit_test17lazy_ostream_implINS1_INS1_INS1_INS1_INS1_INS0_12lazy_ostreamEA1_cRA1_KcEEA7_cRA7_S4_EEA4_cRA4_S4_EENS_10test_tools9tt_detail14print_helper_tIiEERKSJ_EEA3_cRA3_S4_EEA15_cRA15_S4_EclERSo
FNDA:3,_ZNK5boost9unit_test17lazy_ostream_implINS1_INS1_INS1_INS1_INS1_INS1_INS0_12lazy_ostreamEA1_cRA1_KcEEA7_cRA7_S4_EEA4_cRA4_S4_EENS_10test_tools9tt_detail14print_helper_tIiEERKSJ_EEA3_cRA3_S4_EEA15_cRA15_S4_EESC_SE_EclERSo
FNDA:3,_ZNK5boost9unit_test17lazy_ostream_implINS1_INS1_INS1_INS1_INS1_INS1_INS1_INS0_12lazy_ostreamEA1_cRA1_KcEEA7_cRA7_S4_EEA4_cRA4_S4_EENS_10test_tools9tt_detail14print_helper_tIiEERKSJ_EEA3_cRA3_S4_EEA15_cRA15_S4_EESC_SE_EESJ_SL_EclERSo
FNDA:3,_ZNK5boost9unit_test17lazy_ostream_implINS1_INS1_INS1_INS1_INS1_INS1_INS1_INS1_INS0_12lazy_ostreamEA1_cRA1_KcEEA7_cRA7_S4_EEA4_cRA4_S4_EENS_10test_tools9tt_detail14print_helper_tIiEERKSJ_EEA3_cRA3_S4_EEA15_cRA15_S4_EESC_SE_EESJ_SL_EESN_SP_EclERSo
FNDA:0,_ZNK5boost9unit_test17lazy_ostream_implINS0_12lazy_ostreamENS0_13basic_cstringIKcEERKS5_EclERSo
FNDA:0,_ZNK5boost9unit_test17lazy_ostream_implINS0_12lazy_ostreamENS_10test_tools9tt_detail14print_helper_tIiEERKS6_EclERSo
FNDA:0,_ZNK5boost9unit_test17lazy_ostream_implINS0_12lazy_ostreamEA24_cRA24_KcEclERSo
FNDA:0,_ZNK5boost9unit_test17lazy_ostream_implINS0_12lazy_ostreamEA69_cRA69_KcEclERSo
FNDA:0,_ZNK5boost9unit_test17lazy_ostream_implINS0_12lazy_ostreamEA66_cRA66_KcEclERSo
FNDA:18,_ZN5boost9unit_testlsINS_10test_tools9tt_detail14print_helper_tIiEEEENS0_17lazy_ostream_implINS0_12lazy_ostreamET_RKS8_EERKS7_SA_
FNDA:18,_ZN5boost9unit_testlsINS0_13basic_cstringIKcEEEENS0_17lazy_ostream_implINS0_12lazy_ostreamET_RKS7_EERKS6_S9_
FNDA:36,_ZN5boost9unit_testlsIA1_cEENS0_17lazy_ostream_implINS0_12lazy_ostreamET_RKS5_EERKS4_S7_
FNDA:3,_ZN5boost9unit_testlsIA66_cEENS0_17lazy_ostream_implINS0_12lazy_ostreamET_RKS5_EERKS4_S7_
FNDA:0,_ZN5boost9unit_testlsIA69_cEENS0_17lazy_ostream_implINS0_12lazy_ostreamET_RKS5_EERKS4_S7_
FNDA:1,_ZN5boost9unit_testlsIA24_cEENS0_17lazy_ostream_implINS0_12lazy_ostreamET_RKS5_EERKS4_S7_
FNDA:3,_ZN5boost9unit_testlsINS0_17lazy_ostream_implINS2_INS2_INS2_INS2_INS2_INS2_INS0_12lazy_ostreamEA1_cRA1_KcEEA7_cRA7_S5_EEA4_cRA4_S5_EENS_10test_tools9tt_detail14print_helper_tIiEERKSK_EEA3_cRA3_S5_EEA15_cRA15_S5_EESD_SF_EESK_SO_EENS2_INS2_IT_T0_RKSY_EET1_RKS12_EERKS11_S14_
FNDA:3,_ZN5boost9unit_testlsINS0_17lazy_ostream_implINS2_INS2_INS2_INS2_INS2_INS0_12lazy_ostreamEA1_cRA1_KcEEA7_cRA7_S5_EEA4_cRA4_S5_EENS_10test_tools9tt_detail14print_helper_tIiEERKSK_EEA3_cRA3_S5_EEA15_cRA15_S5_EESD_SK_EENS2_INS2_IT_T0_RKSX_EET1_RKS11_EERKS10_S13_
FNDA:3,_ZN5boost9unit_testlsINS0_17lazy_ostream_implINS2_INS2_INS2_INS2_INS0_12lazy_ostreamEA1_cRA1_KcEEA7_cRA7_S5_EEA4_cRA4_S5_EENS_10test_tools9tt_detail14print_helper_tIiEERKSK_EEA3_cRA3_S5_EEA15_cSD_EENS2_INS2_IT_T0_RKSU_EET1_RKSY_EERKSX_S10_
FNDA:3,_ZN5boost9unit_testlsINS0_17lazy_ostream_implINS2_INS2_INS2_INS0_12lazy_ostreamEA1_cRA1_KcEEA7_cRA7_S5_EEA4_cRA4_S5_EENS_10test_tools9tt_detail14print_helper_tIiEERKSK_EEA3_cA15_cEENS2_INS2_IT_T0_RKSR_EET1_RKSV_EERKSU_SX_
FNDA:3,_ZN5boost9unit_testlsINS0_17lazy_ostream_implINS2_INS2_INS0_12lazy_ostreamEA1_cRA1_KcEEA7_cRA7_S5_EEA4_cRA4_S5_EENS_10test_tools9tt_detail14print_helper_tIiEEA3_cEENS2_INS2_IT_T0_RKSN_EET1_RKSR_EERKSQ_ST_
FNDA:3,_ZN5boost9unit_testlsINS0_17lazy_ostream_implINS2_INS0_12lazy_ostreamEA1_cRA1_KcEEA7_cRA7_S5_EEA4_cNS_10test_tools9tt_detail14print_helper_tIiEEEENS2_INS2_IT_T0_RKSJ_EET1_RKSN_EERKSM_SP_
FNDA:3,_ZN5boost9unit_testlsINS0_12lazy_ostreamEA1_cA7_cEENS0_17lazy_ostream_implINS5_IT_T0_RKS7_EET1_RKSB_EERKSA_SD_
FNDA:3,_ZN5boost9unit_testlsINS0_17lazy_ostream_implINS0_12lazy_ostreamEA1_cRA1_KcEEA7_cA4_cEENS2_INS2_IT_T0_RKSC_EET1_RKSG_EERKSF_SI_
FNDA:6,_ZN5boost9unit_testlsINS0_17lazy_ostream_implINS2_INS2_INS2_INS2_INS2_INS2_INS0_12lazy_ostreamEA1_cRA1_KcEEA10_cRA10_S5_EEA4_cRA4_S5_EENS_10test_tools9tt_detail14print_helper_tIiEERKSK_EEA3_cRA3_S5_EEA8_cRA8_S5_EESD_SF_EESK_SO_EENS2_INS2_IT_T0_RKSY_EET1_RKS12_EERKS11_S14_
FNDA:6,_ZN5boost9unit_testlsINS0_17lazy_ostream_implINS2_INS2_INS2_INS2_INS2_INS0_12lazy_ostreamEA1_cRA1_KcEEA10_cRA10_S5_EEA4_cRA4_S5_EENS_10test_tools9tt_detail14print_helper_tIiEERKSK_EEA3_cRA3_S5_EEA8_cRA8_S5_EESD_SK_EENS2_INS2_IT_T0_RKSX_EET1_RKS11_EERKS10_S13_
FNDA:6,_ZN5boost9unit_testlsINS0_17lazy_ostream_implINS2_INS2_INS2_INS2_INS0_12lazy_ostreamEA1_cRA1_KcEEA10_cRA10_S5_EEA4_cRA4_S5_EENS_10test_tools9tt_detail14print_helper_tIiEERKSK_EEA3_cRA3_S5_EEA8_cSD_EENS2_INS2_IT_T0_RKSU_EET1_RKSY_EERKSX_S10_
FNDA:6,_ZN5boost9unit_testlsINS0_17lazy_ostream_implINS2_INS2_INS2_INS0_12lazy_ostreamEA1_cRA1_KcEEA10_cRA10_S5_EEA4_cRA4_S5_EENS_10test_tools9tt_detail14print_helper_tIiEERKSK_EEA3_cA8_cEENS2_INS2_IT_T0_RKSR_EET1_RKSV_EERKSU_SX_
FNDA:6,_ZN5boost9unit_testlsINS0_17lazy_ostream_implINS2_INS2_INS0_12lazy_ostreamEA1_cRA1_KcEEA10_cRA10_S5_EEA4_cRA4_S5_EENS_10test_tools9tt_detail14print_helper_tIiEEA3_cEENS2_INS2_IT_T0_RKSN_EET1_RKSR_EERKSQ_ST_
FNDA:6,_ZN5boost9unit_testlsINS0_17lazy_ostream_implINS2_INS0_12lazy_ostreamEA1_cRA1_KcEEA10_cRA10_S5_EEA4_cNS_10test_tools9tt_detail14print_helper_tIiEEEENS2_INS2_IT_T0_RKSJ_EET1_RKSN_EERKSM_SP_
FNDA:6,_ZN5boost9unit_testlsINS0_12lazy_ostreamEA1_cA10_cEENS0_17lazy_ostream_implINS5_IT_T0_RKS7_EET1_RKSB_EERKSA_SD_
FNDA:6,_ZN5boost9unit_testlsINS0_17lazy_ostream_implINS0_12lazy_ostreamEA1_cRA1_KcEEA10_cA4_cEENS2_INS2_IT_T0_RKSC_EET1_RKSG_EERKSF_SI_
FNDA:18,_ZN5boost9unit_testlsINS0_17lazy_ostream_implINS2_INS2_INS2_INS2_INS2_INS2_INS0_12lazy_ostreamEA1_cRA1_KcEEA3_cRA3_S5_EEA4_cRA4_S5_EENS_10test_tools9tt_detail14print_helper_tIiEERKSK_EES9_SB_EES9_SB_EESD_SF_EESK_S9_EENS2_INS2_IT_T0_RKSS_EET1_RKSW_EERKSV_SY_
FNDA:18,_ZN5boost9unit_testlsINS0_17lazy_ostream_implINS2_INS2_INS2_INS2_INS2_INS0_12lazy_ostreamEA1_cRA1_KcEEA3_cRA3_S5_EEA4_cRA4_S5_EENS_10test_tools9tt_detail14print_helper_tIiEERKSK_EES9_SB_EES9_SB_EESD_SK_EENS2_INS2_IT_T0_RKSR_EET1_RKSV_EERKSU_SX_
FNDA:18,_ZN5boost9unit_testlsINS0_17lazy_ostream_implINS2_INS2_INS2_INS2_INS0_12lazy_ostreamEA1_cRA1_KcEEA3_cRA3_S5_EEA4_cRA4_S5_EENS_10test_tools9tt_detail14print_helper_tIiEERKSK_EES9_SB_EES9_SD_EENS2_INS2_IT_T0_RKSQ_EET1_RKSU_EERKST_SW_
FNDA:18,_ZN5boost9unit_testlsINS0_17lazy_ostream_implINS2_INS2_INS2_INS0_12lazy_ostreamEA1_cRA1_KcEEA3_cRA3_S5_EEA4_cRA4_S5_EENS_10test_tools9tt_detail14print_helper_tIiEERKSK_EES9_S9_EENS2_INS2_IT_T0_RKSP_EET1_RKST_EERKSS_SV_
FNDA:18,_ZN5boost9unit_testlsINS0_17lazy_ostream_implINS2_INS2_INS0_12lazy_ostreamEA1_cRA1_KcEEA3_cRA3_S5_EEA4_cRA4_S5_EENS_10test_tools9tt_detail14print_helper_tIiEES9_EENS2_INS2_IT_T0_RKSM_EET1_RKSQ_EERKSP_SS_
FNDA:18,_ZN5boost9unit_testlsINS0_17lazy_ostream_implINS2_INS0_12lazy_ostreamEA1_cRA1_KcEEA3_cRA3_S5_EEA4_cNS_10test_tools9tt_detail14print_helper_tIiEEEENS2_INS2_IT_T0_RKSJ_EET1_RKSN_EERKSM_SP_
FNDA:18,_ZN5boost9unit_testlsINS0_12lazy_ostreamEA1_cA3_cEENS0_17lazy_ostream_implINS5_IT_T0_RKS7_EET1_RKSB_EERKSA_SD_
FNDA:18,_ZN5boost9unit_testlsINS0_17lazy_ostream_implINS0_12lazy_ostreamEA1_cRA1_KcEEA3_cA4_cEENS2_INS2_IT_T0_RKSC_EET1_RKSG_EERKSF_SI_
FNF:155
FNH:116
DA:33,293
DA:35,76
DA:43,27
DA:45,293
DA:55,292
DA:57,292
DA:60,292
DA:62,292
DA:64,243
DA:66,243
DA:78,76
DA:80,76
DA:87,216
DA:90,216
LF:14
LH:14
end_of_record
SF:/usr/local/include/boost/test/utils/named_params.hpp
FN:233,_ZN5boost3nfp15named_parameterIcNS0_16no_params_type_tEcEC2Ec
FNDA:1,_ZN5boost3nfp15named_parameterIcNS0_16no_params_type_tEcEC2Ec
FNF:1
FNH:1
DA:233,1
DA:235,1
DA:236,1
DA:276,1
LF:4
LH:4
end_of_record
SF:/usr/local/include/boost/test/utils/string_cast.hpp
FN:38,_ZN5boost9unit_test5utils11string_castImEENSt7__cxx1112basic_stringIcSt11char_traitsIcESaIcEEERKT_
FNDA:27,_ZN5boost9unit_test5utils11string_castImEENSt7__cxx1112basic_stringIcSt11char_traitsIcESaIcEEERKT_
FNF:1
FNH:1
DA:38,27
DA:40,54
DA:41,27
DA:42,54
LF:4
LH:4
end_of_record
SF:/usr/local/include/boost/test/utils/trivial_singleton.hpp
FN:37,_ZN5boost9unit_test9singletonINS0_15unit_test_log_tEE8instanceEv
FN:37,_ZN5boost9unit_test9singletonINS0_9decorator9collectorEE8instanceEv
FNDA:12,_ZN5boost9unit_test9singletonINS0_9decorator9collectorEE8instanceEv
FNDA:1,_ZN5boost9unit_test9singletonINS0_15unit_test_log_tEE8instanceEv
FNF:2
FNH:2
DA:37,13
LF:1
LH:1
end_of_record
SF:/usr/local/include/boost/test/utils/wrap_stringstream.hpp
FN:40,_ZN5boost23basic_wrap_stringstreamIcED2Ev
FN:40,_ZN5boost23basic_wrap_stringstreamIcEC2Ev
FN:64,_ZN5boostlsIcA15_cEERNS_23basic_wrap_stringstreamIT_EES5_RKT0_
FN:64,_ZN5boostlsIcA13_cEERNS_23basic_wrap_stringstreamIT_EES5_RKT0_
FN:64,_ZN5boostlsIcA9_cEERNS_23basic_wrap_stringstreamIT_EES5_RKT0_
FN:64,_ZN5boostlsIcA17_cEERNS_23basic_wrap_stringstreamIT_EES5_RKT0_
FN:64,_ZN5boostlsIcA19_cEERNS_23basic_wrap_stringstreamIT_EES5_RKT0_
FN:64,_ZN5boostlsIcA33_cEERNS_23basic_wrap_stringstreamIT_EES5_RKT0_
FN:64,_ZN5boostlsIcA22_cEERNS_23basic_wrap_stringstreamIT_EES5_RKT0_
FN:64,_ZN5boostlsIcA16_cEERNS_23basic_wrap_stringstreamIT_EES5_RKT0_
FN:64,_ZN5boostlsIcA23_cEERNS_23basic_wrap_stringstreamIT_EES5_RKT0_
FN:64,_ZN5boostlsIccEERNS_23basic_wrap_stringstreamIT_EES4_RKT0_
FN:64,_ZN5boostlsIcA8_cEERNS_23basic_wrap_stringstreamIT_EES5_RKT0_
FN:74,_ZN5boost23basic_wrap_stringstreamIcE6streamB5cxx11Ev
FN:83,_ZN5boost23basic_wrap_stringstreamIcE3refEv
FN:92,_ZN5boost23basic_wrap_stringstreamIcE3strB5cxx11Ev
FNDA:96,_ZN5boost23basic_wrap_stringstreamIcED2Ev
FNDA:96,_ZN5boost23basic_wrap_stringstreamIcEC2Ev
FNDA:9,_ZN5boostlsIcA23_cEERNS_23basic_wrap_stringstreamIT_EES5_RKT0_
FNDA:27,_ZN5boostlsIcA8_cEERNS_23basic_wrap_stringstreamIT_EES5_RKT0_
FNDA:27,_ZN5boostlsIcA9_cEERNS_23basic_wrap_stringstreamIT_EES5_RKT0_
FNDA:72,_ZN5boostlsIcA22_cEERNS_23basic_wrap_stringstreamIT_EES5_RKT0_
FNDA:27,_ZN5boostlsIcA17_cEERNS_23basic_wrap_stringstreamIT_EES5_RKT0_
FNDA:3,_ZN5boostlsIcA19_cEERNS_23basic_wrap_stringstreamIT_EES5_RKT0_
FNDA:3,_ZN5boostlsIcA13_cEERNS_23basic_wrap_stringstreamIT_EES5_RKT0_
FNDA:3,_ZN5boostlsIcA16_cEERNS_23basic_wrap_stringstreamIT_EES5_RKT0_
FNDA:6,_ZN5boostlsIcA15_cEERNS_23basic_wrap_stringstreamIT_EES5_RKT0_
FNDA:15,_ZN5boostlsIcA33_cEERNS_23basic_wrap_stringstreamIT_EES5_RKT0_
FNDA:96,_ZN5boostlsIccEERNS_23basic_wrap_stringstreamIT_EES4_RKT0_
FNDA:288,_ZN5boost23basic_wrap_stringstreamIcE6streamB5cxx11Ev
FNDA:96,_ZN5boost23basic_wrap_stringstreamIcE3refEv
FNDA:96,_ZN5boost23basic_wrap_stringstreamIcE3strB5cxx11Ev
FNF:16
FNH:16
DA:40,192
DA:64,288
DA:66,288
DA:67,288
DA:74,288
DA:76,288
DA:83,96
DA:85,96
DA:92,96
DA:99,96
DA:102,96
LF:11
LH:11
end_of_record
SF:/usr/local/include/boost/thread/exceptions.hpp
FN:36,_ZN5boost16thread_exceptionC2ERKS0_
FN:50,_ZN5boost16thread_exceptionC2EiPKc
FN:59,_ZN5boost16thread_exceptionD0Ev
FN:59,_ZN5boost16thread_exceptionD2Ev
FN:94,_ZN5boost10lock_errorC2ERKS0_
FN:107,_ZN5boost10lock_errorC2EiPKc
FN:116,_ZN5boost10lock_errorD0Ev
FN:116,_ZN5boost10lock_errorD2Ev
FN:121,_ZN5boost21thread_resource_errorC2ERKS0_
FN:134,_ZN5boost21thread_resource_errorC2EiPKc
FN:144,_ZN5boost21thread_resource_errorD0Ev
FN:144,_ZN5boost21thread_resource_errorD2Ev
FNDA:0,_ZN5boost16thread_exceptionC2ERKS0_
FNDA:0,_ZN5boost16thread_exceptionC2EiPKc
FNDA:0,_ZN5boost16thread_exceptionD0Ev
FNDA:0,_ZN5boost16thread_exceptionD2Ev
FNDA:0,_ZN5boost10lock_errorC2ERKS0_
FNDA:0,_ZN5boost10lock_errorC2EiPKc
FNDA:0,_ZN5boost10lock_errorD0Ev
FNDA:0,_ZN5boost10lock_errorD2Ev
FNDA:0,_ZN5boost21thread_resource_errorC2ERKS0_
FNDA:0,_ZN5boost21thread_resource_errorC2EiPKc
FNDA:0,_ZN5boost21thread_resource_errorD0Ev
FNDA:0,_ZN5boost21thread_resource_errorD2Ev
FNF:12
FNH:0
DA:36,0
DA:50,0
DA:51,0
DA:53,0
DA:59,0
DA:60,0
DA:94,0
DA:107,0
DA:108,0
DA:110,0
DA:116,0
DA:117,0
DA:121,0
DA:134,0
DA:135,0
DA:137,0
DA:144,0
DA:145,0
LF:18
LH:0
end_of_record
SF:/usr/local/include/boost/thread/lock_guard.hpp
FN:35,_ZN5boost10lock_guardINS_5mutexEEC2ERS1_
FN:65,_ZN5boost10lock_guardINS_5mutexEED2Ev
FNDA:682,_ZN5boost10lock_guardINS_5mutexEEC2ERS1_
FNDA:682,_ZN5boost10lock_guardINS_5mutexEED2Ev
FNF:2
FNH:2
DA:35,682
DA:36,682
DA:38,682
DA:39,682
DA:65,682
DA:67,682
DA:68,682
LF:7
LH:7
end_of_record
SF:/usr/local/include/boost/thread/pthread/mutex.hpp
FN:95,_ZN5boost5mutexC2Ev
FN:103,_ZN5boost5mutexD2Ev
FN:110,_ZN5boost5mutex4lockEv
FN:119,_ZN5boost5mutex6unlockEv
FNDA:8,_ZN5boost5mutexC2Ev
FNDA:8,_ZN5boost5mutexD2Ev
FNDA:682,_ZN5boost5mutex4lockEv
FNDA:682,_ZN5boost5mutex6unlockEv
FNF:4
FNH:4
DA:49,8
DA:50,8
DA:51,8
DA:58,682
DA:59,682
DA:60,682
DA:67,682
DA:68,682
DA:69,682
DA:95,8
DA:96,8
DA:97,8
DA:98,8
DA:100,0
DA:102,8
DA:103,8
DA:104,8
DA:105,16
DA:107,8
DA:108,8
DA:110,682
DA:112,1364
DA:113,682
DA:115,0
DA:117,682
DA:119,682
DA:121,1364
DA:123,682
DA:128,682
LF:29
LH:27
end_of_record
SF:/usr/local/include/boost/throw_exception.hpp
FN:60,_ZN5boost36throw_exception_assert_compatibilityERKSt9exception
FN:62,_ZN5boost15throw_exceptionINS_21thread_resource_errorEEEvRKT_
FN:62,_ZN5boost15throw_exceptionINS_10lock_errorEEEvRKT_
FNDA:0,_ZN5boost36throw_exception_assert_compatibilityERKSt9exception
FNDA:0,_ZN5boost15throw_exceptionINS_10lock_errorEEEvRKT_
FNDA:0,_ZN5boost15throw_exceptionINS_21thread_resource_errorEEEvRKT_
FNF:3
FNH:0
DA:60,0
DA:62,0
DA:66,0
DA:69,0
LF:4
LH:0
end_of_record
SF:/usr/local/include/boost/type_index/stl_type_index.hpp
FN:87,_ZN5boost9typeindex14stl_type_indexC2ERKSt9type_info
FN:111,_ZNK5boost9typeindex14stl_type_index9type_infoEv
FN:202,_ZNK5boost9typeindex14stl_type_index5equalERKS1_
FN:225,_ZN5boost9typeindex14stl_type_index7type_idISt5_BindIFPFvRKiS5_EiiEEEES1_v
FN:225,_ZN5boost9typeindex14stl_type_index7type_idIPFvNS_8contract4fromEEEES1_v
FN:225,_ZN5boost9typeindex14stl_type_index7type_idIZN1FC4EvEUlNS_8contract4fromEE_EES1_v
FN:225,_ZN5boost9typeindex14stl_type_index7type_idIZN1FC4EvEUlNS_8contract4fromEE0_EES1_v
FN:225,_ZN5boost9typeindex14stl_type_index7type_idIZN1FC4EvEUlvE1_EES1_v
FN:225,_ZN5boost9typeindex14stl_type_index7type_idIPFvvEEES1_v
FNDA:0,_ZN5boost9typeindex14stl_type_indexC2ERKSt9type_info
FNDA:0,_ZNK5boost9typeindex14stl_type_index9type_infoEv
FNDA:0,_ZNK5boost9typeindex14stl_type_index5equalERKS1_
FNDA:0,_ZN5boost9typeindex14stl_type_index7type_idISt5_BindIFPFvRKiS5_EiiEEEES1_v
FNDA:0,_ZN5boost9typeindex14stl_type_index7type_idIPFvNS_8contract4fromEEEES1_v
FNDA:0,_ZN5boost9typeindex14stl_type_index7type_idIPFvvEEES1_v
FNDA:0,_ZN5boost9typeindex14stl_type_index7type_idIZN1FC4EvEUlvE1_EES1_v
FNDA:0,_ZN5boost9typeindex14stl_type_index7type_idIZN1FC4EvEUlNS_8contract4fromEE0_EES1_v
FNDA:0,_ZN5boost9typeindex14stl_type_index7type_idIZN1FC4EvEUlNS_8contract4fromEE_EES1_v
FNF:9
FNH:0
DA:87,0
DA:88,0
DA:89,0
DA:111,0
DA:112,0
DA:202,0
DA:206,0
DA:225,0
DA:245,0
LF:9
LH:0
end_of_record
SF:/usr/local/include/boost/type_index/type_index_facade.hpp
FN:154,_ZN5boost9typeindexeqINS0_14stl_type_indexESt9type_infoEEbRKNS0_17type_index_facadeIT_T0_EES9_
FN:187,_ZN5boost9typeindexeqINS0_14stl_type_indexESt9type_infoEEbRKT0_RKNS0_17type_index_facadeIT_S4_EE
FNDA:0,_ZN5boost9typeindexeqINS0_14stl_type_indexESt9type_infoEEbRKNS0_17type_index_facadeIT_T0_EES9_
FNDA:0,_ZN5boost9typeindexeqINS0_14stl_type_indexESt9type_infoEEbRKT0_RKNS0_17type_index_facadeIT_S4_EE
FNF:2
FNH:0
DA:154,0
DA:155,0
DA:187,0
DA:188,0
LF:4
LH:0
end_of_record
SF:/usr/local/include/boost/type_index.hpp
FN:211,_ZN5boost9typeindex7type_idIPFvNS_8contract4fromEEEENS0_14stl_type_indexEv
FN:211,_ZN5boost9typeindex7type_idIZN1FC4EvEUlNS_8contract4fromEE0_EENS0_14stl_type_indexEv
FN:211,_ZN5boost9typeindex7type_idIZN1FC4EvEUlNS_8contract4fromEE_EENS0_14stl_type_indexEv
FN:211,_ZN5boost9typeindex7type_idIPFvvEEENS0_14stl_type_indexEv
FN:211,_ZN5boost9typeindex7type_idISt5_BindIFPFvRKiS4_EiiEEEENS0_14stl_type_indexEv
FN:211,_ZN5boost9typeindex7type_idIZN1FC4EvEUlvE1_EENS0_14stl_type_indexEv
FNDA:0,_ZN5boost9typeindex7type_idISt5_BindIFPFvRKiS4_EiiEEEENS0_14stl_type_indexEv
FNDA:0,_ZN5boost9typeindex7type_idIPFvNS_8contract4fromEEEENS0_14stl_type_indexEv
FNDA:0,_ZN5boost9typeindex7type_idIPFvvEEENS0_14stl_type_indexEv
FNDA:0,_ZN5boost9typeindex7type_idIZN1FC4EvEUlvE1_EENS0_14stl_type_indexEv
FNDA:0,_ZN5boost9typeindex7type_idIZN1FC4EvEUlNS_8contract4fromEE0_EENS0_14stl_type_indexEv
FNDA:0,_ZN5boost9typeindex7type_idIZN1FC4EvEUlNS_8contract4fromEE_EENS0_14stl_type_indexEv
FNF:6
FNH:0
DA:211,0
DA:212,0
LF:2
LH:0
end_of_record
SF:/usr/local/include/boost/type_traits/integral_constant.hpp
FN:80,_ZNK5boost17integral_constantIbLb0EEcvRKN4mpl_5bool_ILb0EEEEv
FNDA:9,_ZNK5boost17integral_constantIbLb0EEcvRKN4mpl_5bool_ILb0EEEEv
FNF:1
FNH:1
DA:80,9
DA:84,9
LF:2
LH:2
end_of_record
